ARM GAS  C:\Users\pierc\AppData\Local\Temp\ccLUFoU0.s 			page 1


   1              		.cpu cortex-m4
   2              		.eabi_attribute 27, 1
   3              		.eabi_attribute 28, 1
   4              		.eabi_attribute 20, 1
   5              		.eabi_attribute 21, 1
   6              		.eabi_attribute 23, 3
   7              		.eabi_attribute 24, 1
   8              		.eabi_attribute 25, 1
   9              		.eabi_attribute 26, 1
  10              		.eabi_attribute 30, 1
  11              		.eabi_attribute 34, 1
  12              		.eabi_attribute 18, 4
  13              		.file	"main.c"
  14              		.text
  15              	.Ltext0:
  16              		.cfi_sections	.debug_frame
  17              		.section	.text.MX_GPIO_Init,"ax",%progbits
  18              		.align	1
  19              		.arch armv7e-m
  20              		.syntax unified
  21              		.thumb
  22              		.thumb_func
  23              		.fpu fpv4-sp-d16
  25              	MX_GPIO_Init:
  26              	.LFB138:
  27              		.file 1 "Core/Src/main.c"
   1:Core/Src/main.c **** 
   2:Core/Src/main.c **** #include "main.h"
   3:Core/Src/main.c **** #include "math.h"
   4:Core/Src/main.c **** #include <string.h>
   5:Core/Src/main.c **** #include <stdio.h>
   6:Core/Src/main.c **** #include "FloatToChar.h"
   7:Core/Src/main.c **** #include "LiquidCrystal.h"
   8:Core/Src/main.c **** #include "MPU6050.h"
   9:Core/Src/main.c **** 
  10:Core/Src/main.c **** 
  11:Core/Src/main.c **** #define TIMER_FREQUENCY_HZ             ((uint32_t)1000)    
  12:Core/Src/main.c **** ADC_HandleTypeDef    AdcHandle;
  13:Core/Src/main.c **** TIM_HandleTypeDef    TimHandle;
  14:Core/Src/main.c **** I2C_HandleTypeDef I2CHandle;
  15:Core/Src/main.c **** 
  16:Core/Src/main.c **** 
  17:Core/Src/main.c **** /* Private function prototypes -----------------------------------------------*/
  18:Core/Src/main.c **** void SystemClock_Config(void);
  19:Core/Src/main.c **** void Error_Handler(void);
  20:Core/Src/main.c **** static void ADC_Config(void);
  21:Core/Src/main.c **** static void TIM_Config(void);
  22:Core/Src/main.c **** static void I2C_Config(void);
  23:Core/Src/main.c **** static void MX_GPIO_Init(void);
  24:Core/Src/main.c **** 
  25:Core/Src/main.c **** 
  26:Core/Src/main.c **** int main(void)
  27:Core/Src/main.c **** {
  28:Core/Src/main.c **** 	uint16_t raw;
  29:Core/Src/main.c **** //char str[80];
  30:Core/Src/main.c **** 	double resistance;
  31:Core/Src/main.c **** 	float x;
ARM GAS  C:\Users\pierc\AppData\Local\Temp\ccLUFoU0.s 			page 2


  32:Core/Src/main.c **** 	double digital;
  33:Core/Src/main.c **** 	float Temp;
  34:Core/Src/main.c **** 	char buff[10];
  35:Core/Src/main.c ****   
  36:Core/Src/main.c ****  
  37:Core/Src/main.c ****   HAL_Init();
  38:Core/Src/main.c **** 	LiquidCrystal(GPIOA, GPIO_PIN_1, GPIO_PIN_4, GPIO_PIN_5, GPIO_PIN_6, GPIO_PIN_7, GPIO_PIN_9, GPIO_
  39:Core/Src/main.c ****   
  40:Core/Src/main.c ****   print("Temp:");
  41:Core/Src/main.c ****   // createChar(0,three);
  42:Core/Src/main.c ****   // setCursor(7,0);
  43:Core/Src/main.c ****   // write(0);
  44:Core/Src/main.c ****   setCursor(0,1);
  45:Core/Src/main.c **** 
  46:Core/Src/main.c ****   /* Configure the system clock to 64 MHz */
  47:Core/Src/main.c ****   SystemClock_Config();
  48:Core/Src/main.c ****   /* Configure the ADC peripheral */
  49:Core/Src/main.c ****   ADC_Config();
  50:Core/Src/main.c ****   
  51:Core/Src/main.c ****   /* Configure the TIM peripheral */
  52:Core/Src/main.c ****   TIM_Config();
  53:Core/Src/main.c ****   
  54:Core/Src/main.c ****   MX_GPIO_Init();
  55:Core/Src/main.c ****   /* Configure the I2C peripheral */
  56:Core/Src/main.c ****   I2C_Config();
  57:Core/Src/main.c ****  
  58:Core/Src/main.c ****   MPU6050_Init();
  59:Core/Src/main.c ****   
  60:Core/Src/main.c ****   
  61:Core/Src/main.c **** 
  62:Core/Src/main.c ****   /* Timer counter enable */
  63:Core/Src/main.c ****   if (HAL_TIM_Base_Start(&TimHandle) != HAL_OK)
  64:Core/Src/main.c ****   {
  65:Core/Src/main.c ****     /* Counter Enable Error */
  66:Core/Src/main.c ****     Error_Handler();
  67:Core/Src/main.c **** 		
  68:Core/Src/main.c ****   }
  69:Core/Src/main.c ****   
  70:Core/Src/main.c **** 	HAL_ADC_Start(&AdcHandle);
  71:Core/Src/main.c ****   HAL_NVIC_SetPriority(EXTI3_IRQn , 0, 0);
  72:Core/Src/main.c ****   HAL_NVIC_EnableIRQ(EXTI3_IRQn);
  73:Core/Src/main.c ****   /* Infinite loop */
  74:Core/Src/main.c ****   while (1)
  75:Core/Src/main.c ****   {
  76:Core/Src/main.c **** 		
  77:Core/Src/main.c **** 		//MPU6050_Read_Accel();
  78:Core/Src/main.c ****     HAL_ADC_PollForConversion(&AdcHandle, HAL_MAX_DELAY);
  79:Core/Src/main.c **** 		
  80:Core/Src/main.c **** 		//print("HEY");
  81:Core/Src/main.c **** 		raw = HAL_ADC_GetValue(&AdcHandle);
  82:Core/Src/main.c **** 		digital = (double)(3.3/4095)*raw;
  83:Core/Src/main.c **** 	
  84:Core/Src/main.c **** 		// initialized 12 bit resolution
  85:Core/Src/main.c **** 		//so the max analog value is 2^12-1=4095
  86:Core/Src/main.c **** 		//which corresponds to 5v so the 5/4095 
  87:Core/Src/main.c **** 		//ration must be held
  88:Core/Src/main.c **** 	
ARM GAS  C:\Users\pierc\AppData\Local\Temp\ccLUFoU0.s 			page 3


  89:Core/Src/main.c **** 		resistance = (3.3-digital)*10000.0/digital;
  90:Core/Src/main.c **** 	
  91:Core/Src/main.c **** 		x = 0.00102219653793705 + 0.000253179116444952*((float)log(resistance)) -0.0000000000587992011631
  92:Core/Src/main.c **** 		Temp = 1.0/x - 273.15;
  93:Core/Src/main.c **** 
  94:Core/Src/main.c ****     float_char(buff,Temp);
  95:Core/Src/main.c **** 		setCursor(0,1);
  96:Core/Src/main.c ****     
  97:Core/Src/main.c ****     print(buff);
  98:Core/Src/main.c ****     float_char(buff,ACCEL_X);
  99:Core/Src/main.c ****     setCursor(8,1);
 100:Core/Src/main.c **** 	  
 101:Core/Src/main.c ****     print(buff);
 102:Core/Src/main.c **** 		
 103:Core/Src/main.c **** 		HAL_Delay(1000);
 104:Core/Src/main.c **** 	}
 105:Core/Src/main.c **** }
 106:Core/Src/main.c **** 
 107:Core/Src/main.c **** /**
 108:Core/Src/main.c ****   * @brief  System Clock Configuration
 109:Core/Src/main.c ****   *         The system Clock is configured as follow : 
 110:Core/Src/main.c ****   *            System Clock source            = PLL (HSI)
 111:Core/Src/main.c ****   *            SYSCLK(Hz)                     = 64000000
 112:Core/Src/main.c ****   *            HCLK(Hz)                       = 64000000
 113:Core/Src/main.c ****   *            AHB Prescaler                  = 1
 114:Core/Src/main.c ****   *            APB1 Prescaler                 = 2
 115:Core/Src/main.c ****   *            APB2 Prescaler                 = 1
 116:Core/Src/main.c ****   *            HSI Frequency(Hz)              = 8000000
 117:Core/Src/main.c ****   *            PREDIV                         = RCC_PREDIV_DIV2 (2)
 118:Core/Src/main.c ****   *            PLLMUL                         = RCC_PLL_MUL16 (16)
 119:Core/Src/main.c ****   *            Flash Latency(WS)              = 2
 120:Core/Src/main.c ****   * @param  None
 121:Core/Src/main.c ****   * @retval None
 122:Core/Src/main.c ****   */
 123:Core/Src/main.c **** 
 124:Core/Src/main.c **** 
 125:Core/Src/main.c **** void SystemClock_Config(void)
 126:Core/Src/main.c **** {
 127:Core/Src/main.c ****   RCC_ClkInitTypeDef RCC_ClkInitStruct;
 128:Core/Src/main.c ****   RCC_OscInitTypeDef RCC_OscInitStruct;
 129:Core/Src/main.c ****   
 130:Core/Src/main.c ****   /* HSI Oscillator already ON after system reset, activate PLL with HSI as source */
 131:Core/Src/main.c ****   RCC_OscInitStruct.OscillatorType = RCC_OSCILLATORTYPE_NONE;
 132:Core/Src/main.c ****   RCC_OscInitStruct.PLL.PLLState = RCC_PLL_ON;
 133:Core/Src/main.c ****   RCC_OscInitStruct.PLL.PLLSource = RCC_PLLSOURCE_HSI;
 134:Core/Src/main.c ****   RCC_OscInitStruct.PLL.PREDIV = RCC_PREDIV_DIV2;
 135:Core/Src/main.c ****   RCC_OscInitStruct.PLL.PLLMUL = RCC_PLL_MUL16;
 136:Core/Src/main.c ****   RCC_OscInitStruct.HSICalibrationValue = RCC_HSICALIBRATION_DEFAULT;
 137:Core/Src/main.c ****   if (HAL_RCC_OscConfig(&RCC_OscInitStruct)!= HAL_OK)
 138:Core/Src/main.c ****   {
 139:Core/Src/main.c ****     Error_Handler();
 140:Core/Src/main.c ****   }
 141:Core/Src/main.c **** 
 142:Core/Src/main.c ****   /* Select PLL as system clock source and configure the HCLK, PCLK1 and PCLK2 
 143:Core/Src/main.c ****      clocks dividers */
 144:Core/Src/main.c ****   RCC_ClkInitStruct.ClockType = (RCC_CLOCKTYPE_SYSCLK | RCC_CLOCKTYPE_HCLK | RCC_CLOCKTYPE_PCLK1 | 
 145:Core/Src/main.c ****   RCC_ClkInitStruct.SYSCLKSource = RCC_SYSCLKSOURCE_PLLCLK;
ARM GAS  C:\Users\pierc\AppData\Local\Temp\ccLUFoU0.s 			page 4


 146:Core/Src/main.c ****   RCC_ClkInitStruct.AHBCLKDivider = RCC_SYSCLK_DIV1;
 147:Core/Src/main.c ****   RCC_ClkInitStruct.APB1CLKDivider = RCC_HCLK_DIV2;  
 148:Core/Src/main.c ****   RCC_ClkInitStruct.APB2CLKDivider = RCC_HCLK_DIV1;
 149:Core/Src/main.c ****   if (HAL_RCC_ClockConfig(&RCC_ClkInitStruct, FLASH_LATENCY_2)!= HAL_OK)
 150:Core/Src/main.c ****   {
 151:Core/Src/main.c ****     Error_Handler();
 152:Core/Src/main.c ****   }
 153:Core/Src/main.c **** }
 154:Core/Src/main.c **** 
 155:Core/Src/main.c **** /**
 156:Core/Src/main.c ****   * @brief  ADC configuration
 157:Core/Src/main.c ****   * @param  None
 158:Core/Src/main.c ****   * @retval None
 159:Core/Src/main.c ****   */
 160:Core/Src/main.c **** static void ADC_Config(void)
 161:Core/Src/main.c **** {
 162:Core/Src/main.c ****   ADC_ChannelConfTypeDef   sConfig;
 163:Core/Src/main.c ****   
 164:Core/Src/main.c ****   /* Configuration of ADCx init structure: ADC parameters and regular group */
 165:Core/Src/main.c ****   AdcHandle.Instance = ADC1;
 166:Core/Src/main.c **** 
 167:Core/Src/main.c ****   AdcHandle.Init.ClockPrescaler        = ADC_CLOCK_SYNC_PCLK_DIV4;
 168:Core/Src/main.c ****   AdcHandle.Init.Resolution            = ADC_RESOLUTION_12B;
 169:Core/Src/main.c ****   AdcHandle.Init.DataAlign             = ADC_DATAALIGN_RIGHT;
 170:Core/Src/main.c ****   AdcHandle.Init.ScanConvMode          = DISABLE;                       /* Sequencer disabled (ADC 
 171:Core/Src/main.c ****   AdcHandle.Init.EOCSelection          = ADC_EOC_SINGLE_CONV;
 172:Core/Src/main.c ****   AdcHandle.Init.LowPowerAutoWait      = DISABLE;
 173:Core/Src/main.c ****   AdcHandle.Init.ContinuousConvMode    = ENABLE;                       /* Continuous mode disabled 
 174:Core/Src/main.c ****   AdcHandle.Init.NbrOfConversion       = 1;                             /* Parameter discarded beca
 175:Core/Src/main.c ****   AdcHandle.Init.DiscontinuousConvMode = DISABLE;                       /* Parameter discarded beca
 176:Core/Src/main.c ****   AdcHandle.Init.NbrOfDiscConversion   = 1;                             /* Parameter discarded beca
 177:Core/Src/main.c ****   AdcHandle.Init.ExternalTrigConv      = ADC_SOFTWARE_START;  /* Trig of conversion start done by e
 178:Core/Src/main.c ****   AdcHandle.Init.ExternalTrigConvEdge  = ADC_EXTERNALTRIGCONVEDGE_NONE;
 179:Core/Src/main.c ****   AdcHandle.Init.DMAContinuousRequests = DISABLE;
 180:Core/Src/main.c ****   AdcHandle.Init.Overrun               = ADC_OVR_DATA_OVERWRITTEN;
 181:Core/Src/main.c **** 
 182:Core/Src/main.c ****   if (HAL_ADC_Init(&AdcHandle) != HAL_OK)
 183:Core/Src/main.c ****   {
 184:Core/Src/main.c ****     /* ADC initialization error */
 185:Core/Src/main.c ****     Error_Handler();
 186:Core/Src/main.c ****   }
 187:Core/Src/main.c ****   sConfig.Channel      = ADC_CHANNEL_1;
 188:Core/Src/main.c ****   sConfig.Rank         = ADC_REGULAR_RANK_1;
 189:Core/Src/main.c ****   sConfig.SamplingTime = ADC_SAMPLETIME_181CYCLES_5;
 190:Core/Src/main.c ****   sConfig.SingleDiff   = ADC_SINGLE_ENDED;
 191:Core/Src/main.c ****   sConfig.OffsetNumber = ADC_OFFSET_NONE;
 192:Core/Src/main.c ****   sConfig.Offset       = 0;
 193:Core/Src/main.c ****   
 194:Core/Src/main.c ****   if (HAL_ADC_ConfigChannel(&AdcHandle, &sConfig) != HAL_OK)
 195:Core/Src/main.c ****   {
 196:Core/Src/main.c ****     /* Channel Configuration Error */
 197:Core/Src/main.c ****     Error_Handler();
 198:Core/Src/main.c ****   }
 199:Core/Src/main.c ****   
 200:Core/Src/main.c **** 
 201:Core/Src/main.c ****  
 202:Core/Src/main.c **** }
ARM GAS  C:\Users\pierc\AppData\Local\Temp\ccLUFoU0.s 			page 5


 203:Core/Src/main.c **** static void I2C_Config(void)
 204:Core/Src/main.c **** {
 205:Core/Src/main.c ****    I2CHandle.Instance = I2C1;
 206:Core/Src/main.c ****   I2CHandle.Init.Timing= 0x2000090E;
 207:Core/Src/main.c ****   I2CHandle.Init.OwnAddress1= 0;
 208:Core/Src/main.c ****   I2CHandle.Init.AddressingMode = I2C_ADDRESSINGMODE_7BIT;
 209:Core/Src/main.c ****   I2CHandle.Init.DualAddressMode = I2C_DUALADDRESS_DISABLE;
 210:Core/Src/main.c ****   I2CHandle.Init.OwnAddress2 = 0;
 211:Core/Src/main.c ****   I2CHandle.Init.OwnAddress2Masks = I2C_OA2_NOMASK;
 212:Core/Src/main.c ****   I2CHandle.Init.GeneralCallMode = I2C_GENERALCALL_DISABLE;
 213:Core/Src/main.c ****   I2CHandle.Init.NoStretchMode = I2C_NOSTRETCH_DISABLE;
 214:Core/Src/main.c ****   if (HAL_I2C_Init(&I2CHandle) != HAL_OK)
 215:Core/Src/main.c ****   {
 216:Core/Src/main.c ****     Error_Handler();
 217:Core/Src/main.c ****   }
 218:Core/Src/main.c ****   /** Configure Analogue filter
 219:Core/Src/main.c ****   */
 220:Core/Src/main.c ****   if (HAL_I2CEx_ConfigAnalogFilter(&I2CHandle, I2C_ANALOGFILTER_ENABLE) != HAL_OK)
 221:Core/Src/main.c ****   {
 222:Core/Src/main.c ****     Error_Handler();
 223:Core/Src/main.c ****   }
 224:Core/Src/main.c ****   /** Configure Digital filter
 225:Core/Src/main.c ****   */
 226:Core/Src/main.c ****   if (HAL_I2CEx_ConfigDigitalFilter(&I2CHandle, 0) != HAL_OK)
 227:Core/Src/main.c ****   {
 228:Core/Src/main.c ****     Error_Handler();
 229:Core/Src/main.c ****   }
 230:Core/Src/main.c **** }
 231:Core/Src/main.c **** 
 232:Core/Src/main.c **** /**
 233:Core/Src/main.c ****   * @brief  TIM configuration
 234:Core/Src/main.c ****   * @param  None
 235:Core/Src/main.c ****   * @retval None
 236:Core/Src/main.c ****   */
 237:Core/Src/main.c **** static void TIM_Config(void)
 238:Core/Src/main.c **** {
 239:Core/Src/main.c ****   TIM_MasterConfigTypeDef sMasterConfig;
 240:Core/Src/main.c ****   
 241:Core/Src/main.c ****   /* Time Base configuration */
 242:Core/Src/main.c ****   TimHandle.Instance = TIM1;
 243:Core/Src/main.c ****   
 244:Core/Src/main.c ****   /* Configure timer frequency */
 245:Core/Src/main.c ****   /* Note: Setting of timer prescaler to 1099 to increase the maximum range   */
 246:Core/Src/main.c ****   /*       of the timer, to fit within timer range of 0xFFFF.                 */
 247:Core/Src/main.c ****   /*       Setting of reload period to SysClk/1099 to maintain a base         */
 248:Core/Src/main.c ****   /*       frequency of 1us.                                                  */
 249:Core/Src/main.c ****   /*       With SysClk set to 72MHz, timer frequency (defined by label        */
 250:Core/Src/main.c ****   /*       TIMER_FREQUENCY_HZ range) is min=1Hz, max=32.757kHz.               */
 251:Core/Src/main.c ****   /* Note: Timer clock source frequency is retrieved with function            */
 252:Core/Src/main.c ****   /*       HAL_RCC_GetPCLK1Freq().                                            */
 253:Core/Src/main.c ****   /*       Alternate possibility, depending on prescaler settings:            */
 254:Core/Src/main.c ****   /*       use variable "SystemCoreClock" holding HCLK frequency, updated by  */
 255:Core/Src/main.c ****   /*       function HAL_RCC_ClockConfig().                                    */
 256:Core/Src/main.c ****   TimHandle.Init.Period = ((HAL_RCC_GetPCLK1Freq() / (1099 * TIMER_FREQUENCY_HZ)) - 1);
 257:Core/Src/main.c ****   TimHandle.Init.Prescaler = (1099-1);
 258:Core/Src/main.c ****   TimHandle.Init.ClockDivision = TIM_CLOCKDIVISION_DIV1;
 259:Core/Src/main.c ****   TimHandle.Init.CounterMode = TIM_COUNTERMODE_UP;
ARM GAS  C:\Users\pierc\AppData\Local\Temp\ccLUFoU0.s 			page 6


 260:Core/Src/main.c ****   TimHandle.Init.RepetitionCounter = 0x0;
 261:Core/Src/main.c ****   TimHandle.Init.AutoReloadPreload = TIM_AUTORELOAD_PRELOAD_DISABLE;
 262:Core/Src/main.c ****   
 263:Core/Src/main.c ****   if (HAL_TIM_Base_Init(&TimHandle) != HAL_OK)
 264:Core/Src/main.c ****   {
 265:Core/Src/main.c ****     /* Timer initialization Error */
 266:Core/Src/main.c ****     Error_Handler();
 267:Core/Src/main.c ****   }
 268:Core/Src/main.c **** 
 269:Core/Src/main.c ****   /* Timer TRGO selection */
 270:Core/Src/main.c ****   sMasterConfig.MasterOutputTrigger = TIM_TRGO_UPDATE;
 271:Core/Src/main.c ****   sMasterConfig.MasterOutputTrigger2 = TIM_TRGO2_RESET;
 272:Core/Src/main.c ****   sMasterConfig.MasterSlaveMode = TIM_MASTERSLAVEMODE_DISABLE;
 273:Core/Src/main.c **** 
 274:Core/Src/main.c ****   if (HAL_TIMEx_MasterConfigSynchronization(&TimHandle, &sMasterConfig) != HAL_OK)
 275:Core/Src/main.c ****   {
 276:Core/Src/main.c ****     /* Timer TRGO selection Error */
 277:Core/Src/main.c ****     Error_Handler();
 278:Core/Src/main.c ****   }
 279:Core/Src/main.c ****   
 280:Core/Src/main.c **** }
 281:Core/Src/main.c **** 
 282:Core/Src/main.c **** static void MX_GPIO_Init(void)
 283:Core/Src/main.c **** {
  28              		.loc 1 283 1 view -0
  29              		.cfi_startproc
  30              		@ args = 0, pretend = 0, frame = 24
  31              		@ frame_needed = 0, uses_anonymous_args = 0
  32 0000 00B5     		push	{lr}
  33              	.LCFI0:
  34              		.cfi_def_cfa_offset 4
  35              		.cfi_offset 14, -4
  36 0002 87B0     		sub	sp, sp, #28
  37              	.LCFI1:
  38              		.cfi_def_cfa_offset 32
 284:Core/Src/main.c ****   GPIO_InitTypeDef GPIO_InitStruct = {0};
  39              		.loc 1 284 3 view .LVU1
  40              		.loc 1 284 20 is_stmt 0 view .LVU2
  41 0004 0023     		movs	r3, #0
  42 0006 0493     		str	r3, [sp, #16]
  43 0008 0593     		str	r3, [sp, #20]
 285:Core/Src/main.c ****   /* GPIO Ports Clock Enable */
 286:Core/Src/main.c ****   __HAL_RCC_GPIOB_CLK_ENABLE();
  44              		.loc 1 286 3 is_stmt 1 view .LVU3
  45              	.LBB2:
  46              		.loc 1 286 3 view .LVU4
  47              		.loc 1 286 3 view .LVU5
  48 000a 03F18043 		add	r3, r3, #1073741824
  49 000e 03F50433 		add	r3, r3, #135168
  50 0012 5A69     		ldr	r2, [r3, #20]
  51 0014 42F48022 		orr	r2, r2, #262144
  52 0018 5A61     		str	r2, [r3, #20]
  53              		.loc 1 286 3 view .LVU6
  54 001a 5B69     		ldr	r3, [r3, #20]
  55 001c 03F48023 		and	r3, r3, #262144
  56 0020 0093     		str	r3, [sp]
  57              		.loc 1 286 3 view .LVU7
ARM GAS  C:\Users\pierc\AppData\Local\Temp\ccLUFoU0.s 			page 7


  58 0022 009B     		ldr	r3, [sp]
  59              	.LBE2:
  60              		.loc 1 286 3 view .LVU8
 287:Core/Src/main.c ****   
 288:Core/Src/main.c ****   GPIO_InitStruct.Pin=GPIO_PIN_3;
  61              		.loc 1 288 3 view .LVU9
  62              		.loc 1 288 22 is_stmt 0 view .LVU10
  63 0024 0823     		movs	r3, #8
  64 0026 0193     		str	r3, [sp, #4]
 289:Core/Src/main.c ****   GPIO_InitStruct.Mode=GPIO_MODE_IT_RISING;
  65              		.loc 1 289 3 is_stmt 1 view .LVU11
  66              		.loc 1 289 23 is_stmt 0 view .LVU12
  67 0028 054B     		ldr	r3, .L3
  68 002a 0293     		str	r3, [sp, #8]
 290:Core/Src/main.c ****   GPIO_InitStruct.Pull=GPIO_PULLDOWN;
  69              		.loc 1 290 3 is_stmt 1 view .LVU13
  70              		.loc 1 290 23 is_stmt 0 view .LVU14
  71 002c 0223     		movs	r3, #2
  72 002e 0393     		str	r3, [sp, #12]
 291:Core/Src/main.c ****   HAL_GPIO_Init(GPIOB,&GPIO_InitStruct);
  73              		.loc 1 291 3 is_stmt 1 view .LVU15
  74 0030 01A9     		add	r1, sp, #4
  75 0032 0448     		ldr	r0, .L3+4
  76 0034 FFF7FEFF 		bl	HAL_GPIO_Init
  77              	.LVL0:
 292:Core/Src/main.c **** }
  78              		.loc 1 292 1 is_stmt 0 view .LVU16
  79 0038 07B0     		add	sp, sp, #28
  80              	.LCFI2:
  81              		.cfi_def_cfa_offset 4
  82              		@ sp needed
  83 003a 5DF804FB 		ldr	pc, [sp], #4
  84              	.L4:
  85 003e 00BF     		.align	2
  86              	.L3:
  87 0040 00001110 		.word	269549568
  88 0044 00040048 		.word	1207960576
  89              		.cfi_endproc
  90              	.LFE138:
  92              		.section	.text.HAL_ADC_ConvCpltCallback,"ax",%progbits
  93              		.align	1
  94              		.global	HAL_ADC_ConvCpltCallback
  95              		.syntax unified
  96              		.thumb
  97              		.thumb_func
  98              		.fpu fpv4-sp-d16
 100              	HAL_ADC_ConvCpltCallback:
 101              	.LVL1:
 102              	.LFB139:
 293:Core/Src/main.c **** 
 294:Core/Src/main.c **** /**
 295:Core/Src/main.c ****   * @brief  DAC configuration
 296:Core/Src/main.c ****   * @param  None
 297:Core/Src/main.c ****   * @retval None
 298:Core/Src/main.c ****   */
 299:Core/Src/main.c **** 
 300:Core/Src/main.c **** 
ARM GAS  C:\Users\pierc\AppData\Local\Temp\ccLUFoU0.s 			page 8


 301:Core/Src/main.c **** 
 302:Core/Src/main.c **** /**
 303:Core/Src/main.c ****   * @brief EXTI line detection callbacks
 304:Core/Src/main.c ****   * @param GPIO_Pin: Specifies the pins connected EXTI line
 305:Core/Src/main.c ****   * @retval None
 306:Core/Src/main.c ****   */
 307:Core/Src/main.c **** 
 308:Core/Src/main.c **** 
 309:Core/Src/main.c **** /**
 310:Core/Src/main.c ****   * @brief  Conversion complete callback in non blocking mode
 311:Core/Src/main.c ****   * @param  AdcHandle : AdcHandle handle
 312:Core/Src/main.c ****   * @note   This example shows a simple way to report end of conversion
 313:Core/Src/main.c ****   *         and get conversion result. You can add your own implementation.
 314:Core/Src/main.c ****   * @retval None
 315:Core/Src/main.c ****   */
 316:Core/Src/main.c **** void HAL_ADC_ConvCpltCallback(ADC_HandleTypeDef *AdcHandle)
 317:Core/Src/main.c **** {
 103              		.loc 1 317 1 is_stmt 1 view -0
 104              		.cfi_startproc
 105              		@ args = 0, pretend = 0, frame = 0
 106              		@ frame_needed = 0, uses_anonymous_args = 0
 107              		@ link register save eliminated.
 318:Core/Src/main.c **** 
 319:Core/Src/main.c **** }
 108              		.loc 1 319 1 view .LVU18
 109 0000 7047     		bx	lr
 110              		.cfi_endproc
 111              	.LFE139:
 113              		.section	.text.HAL_ADC_ConvHalfCpltCallback,"ax",%progbits
 114              		.align	1
 115              		.global	HAL_ADC_ConvHalfCpltCallback
 116              		.syntax unified
 117              		.thumb
 118              		.thumb_func
 119              		.fpu fpv4-sp-d16
 121              	HAL_ADC_ConvHalfCpltCallback:
 122              	.LVL2:
 123              	.LFB140:
 320:Core/Src/main.c **** 
 321:Core/Src/main.c **** /**
 322:Core/Src/main.c ****   * @brief  Conversion DMA half-transfer callback in non blocking mode 
 323:Core/Src/main.c ****   * @param  hadc: ADC handle
 324:Core/Src/main.c ****   * @retval None
 325:Core/Src/main.c ****   */
 326:Core/Src/main.c **** void HAL_ADC_ConvHalfCpltCallback(ADC_HandleTypeDef* hadc)
 327:Core/Src/main.c **** {
 124              		.loc 1 327 1 view -0
 125              		.cfi_startproc
 126              		@ args = 0, pretend = 0, frame = 0
 127              		@ frame_needed = 0, uses_anonymous_args = 0
 128              		@ link register save eliminated.
 328:Core/Src/main.c **** 
 329:Core/Src/main.c **** }
 129              		.loc 1 329 1 view .LVU20
 130 0000 7047     		bx	lr
 131              		.cfi_endproc
 132              	.LFE140:
ARM GAS  C:\Users\pierc\AppData\Local\Temp\ccLUFoU0.s 			page 9


 134              		.section	.text.HAL_ADC_LevelOutOfWindowCallback,"ax",%progbits
 135              		.align	1
 136              		.global	HAL_ADC_LevelOutOfWindowCallback
 137              		.syntax unified
 138              		.thumb
 139              		.thumb_func
 140              		.fpu fpv4-sp-d16
 142              	HAL_ADC_LevelOutOfWindowCallback:
 143              	.LVL3:
 144              	.LFB141:
 330:Core/Src/main.c ****   
 331:Core/Src/main.c **** /**
 332:Core/Src/main.c ****   * @brief  Analog watchdog callback in non blocking mode. 
 333:Core/Src/main.c ****   * @note:  In case of several analog watchdog enabled, if needed to know
 334:Core/Src/main.c ****             which one triggered and on which ADCx, check Analog Watchdog flag
 335:Core/Src/main.c ****             ADC_FLAG_AWD1/2/3 into HAL_ADC_LevelOutOfWindowCallback() function.
 336:Core/Src/main.c ****             For example:"if (__HAL_ADC_GET_FLAG(hadc1, ADC_FLAG_AWD1) != RESET)"
 337:Core/Src/main.c ****   * @param  hadc: ADC handle
 338:Core/Src/main.c ****   * @retval None
 339:Core/Src/main.c ****   */
 340:Core/Src/main.c ****   void HAL_ADC_LevelOutOfWindowCallback(ADC_HandleTypeDef* hadc)
 341:Core/Src/main.c **** {
 145              		.loc 1 341 1 view -0
 146              		.cfi_startproc
 147              		@ args = 0, pretend = 0, frame = 0
 148              		@ frame_needed = 0, uses_anonymous_args = 0
 149              		@ link register save eliminated.
 342:Core/Src/main.c ****   /* Set variable to report analog watchdog out of window status to main      */
 343:Core/Src/main.c ****   /* program.                                                                 */
 344:Core/Src/main.c ****   
 345:Core/Src/main.c **** }
 150              		.loc 1 345 1 view .LVU22
 151 0000 7047     		bx	lr
 152              		.cfi_endproc
 153              	.LFE141:
 155              		.section	.text.Error_Handler,"ax",%progbits
 156              		.align	1
 157              		.global	Error_Handler
 158              		.syntax unified
 159              		.thumb
 160              		.thumb_func
 161              		.fpu fpv4-sp-d16
 163              	Error_Handler:
 164              	.LFB143:
 346:Core/Src/main.c **** 
 347:Core/Src/main.c **** /**
 348:Core/Src/main.c ****   * @brief  ADC error callback in non blocking mode
 349:Core/Src/main.c ****   *        (ADC conversion with interruption or transfer by DMA)
 350:Core/Src/main.c ****   * @param  hadc: ADC handle
 351:Core/Src/main.c ****   * @retval None
 352:Core/Src/main.c ****   */
 353:Core/Src/main.c **** void HAL_ADC_ErrorCallback(ADC_HandleTypeDef *hadc)
 354:Core/Src/main.c **** {
 355:Core/Src/main.c ****   /* In case of ADC error, call main error handler */
 356:Core/Src/main.c ****   Error_Handler();
 357:Core/Src/main.c **** }
 358:Core/Src/main.c **** 
ARM GAS  C:\Users\pierc\AppData\Local\Temp\ccLUFoU0.s 			page 10


 359:Core/Src/main.c **** /**
 360:Core/Src/main.c ****   * @brief  This function is executed in case of error occurrence.
 361:Core/Src/main.c ****   * @param  None
 362:Core/Src/main.c ****   * @retval None
 363:Core/Src/main.c ****   */
 364:Core/Src/main.c **** void Error_Handler(void)
 365:Core/Src/main.c **** {
 165              		.loc 1 365 1 view -0
 166              		.cfi_startproc
 167              		@ Volatile: function does not return.
 168              		@ args = 0, pretend = 0, frame = 0
 169              		@ frame_needed = 0, uses_anonymous_args = 0
 170              		@ link register save eliminated.
 171              	.L9:
 366:Core/Src/main.c ****   /* User may add here some code to deal with a potential error */
 367:Core/Src/main.c ****   
 368:Core/Src/main.c ****   /* In case of error, LED2 is toggling at a frequency of 1Hz */
 369:Core/Src/main.c ****   while(1)
 172              		.loc 1 369 3 discriminator 1 view .LVU24
 370:Core/Src/main.c ****   {
 371:Core/Src/main.c ****     /* Toggle LED2 */
 372:Core/Src/main.c ****   
 373:Core/Src/main.c ****   }
 173              		.loc 1 373 3 discriminator 1 view .LVU25
 369:Core/Src/main.c ****   {
 174              		.loc 1 369 8 discriminator 1 view .LVU26
 175 0000 FEE7     		b	.L9
 176              		.cfi_endproc
 177              	.LFE143:
 179              		.section	.text.ADC_Config,"ax",%progbits
 180              		.align	1
 181              		.syntax unified
 182              		.thumb
 183              		.thumb_func
 184              		.fpu fpv4-sp-d16
 186              	ADC_Config:
 187              	.LFB135:
 161:Core/Src/main.c ****   ADC_ChannelConfTypeDef   sConfig;
 188              		.loc 1 161 1 view -0
 189              		.cfi_startproc
 190              		@ args = 0, pretend = 0, frame = 24
 191              		@ frame_needed = 0, uses_anonymous_args = 0
 192 0000 00B5     		push	{lr}
 193              	.LCFI3:
 194              		.cfi_def_cfa_offset 4
 195              		.cfi_offset 14, -4
 196 0002 87B0     		sub	sp, sp, #28
 197              	.LCFI4:
 198              		.cfi_def_cfa_offset 32
 162:Core/Src/main.c ****   
 199              		.loc 1 162 3 view .LVU28
 165:Core/Src/main.c **** 
 200              		.loc 1 165 3 view .LVU29
 165:Core/Src/main.c **** 
 201              		.loc 1 165 22 is_stmt 0 view .LVU30
 202 0004 1848     		ldr	r0, .L16
 203 0006 4FF0A043 		mov	r3, #1342177280
ARM GAS  C:\Users\pierc\AppData\Local\Temp\ccLUFoU0.s 			page 11


 204 000a 0360     		str	r3, [r0]
 167:Core/Src/main.c ****   AdcHandle.Init.Resolution            = ADC_RESOLUTION_12B;
 205              		.loc 1 167 3 is_stmt 1 view .LVU31
 167:Core/Src/main.c ****   AdcHandle.Init.Resolution            = ADC_RESOLUTION_12B;
 206              		.loc 1 167 40 is_stmt 0 view .LVU32
 207 000c 4FF44033 		mov	r3, #196608
 208 0010 4360     		str	r3, [r0, #4]
 168:Core/Src/main.c ****   AdcHandle.Init.DataAlign             = ADC_DATAALIGN_RIGHT;
 209              		.loc 1 168 3 is_stmt 1 view .LVU33
 168:Core/Src/main.c ****   AdcHandle.Init.DataAlign             = ADC_DATAALIGN_RIGHT;
 210              		.loc 1 168 40 is_stmt 0 view .LVU34
 211 0012 0023     		movs	r3, #0
 212 0014 8360     		str	r3, [r0, #8]
 169:Core/Src/main.c ****   AdcHandle.Init.ScanConvMode          = DISABLE;                       /* Sequencer disabled (ADC 
 213              		.loc 1 169 3 is_stmt 1 view .LVU35
 169:Core/Src/main.c ****   AdcHandle.Init.ScanConvMode          = DISABLE;                       /* Sequencer disabled (ADC 
 214              		.loc 1 169 40 is_stmt 0 view .LVU36
 215 0016 C360     		str	r3, [r0, #12]
 170:Core/Src/main.c ****   AdcHandle.Init.EOCSelection          = ADC_EOC_SINGLE_CONV;
 216              		.loc 1 170 3 is_stmt 1 view .LVU37
 170:Core/Src/main.c ****   AdcHandle.Init.EOCSelection          = ADC_EOC_SINGLE_CONV;
 217              		.loc 1 170 40 is_stmt 0 view .LVU38
 218 0018 0361     		str	r3, [r0, #16]
 171:Core/Src/main.c ****   AdcHandle.Init.LowPowerAutoWait      = DISABLE;
 219              		.loc 1 171 3 is_stmt 1 view .LVU39
 171:Core/Src/main.c ****   AdcHandle.Init.LowPowerAutoWait      = DISABLE;
 220              		.loc 1 171 40 is_stmt 0 view .LVU40
 221 001a 0422     		movs	r2, #4
 222 001c 4261     		str	r2, [r0, #20]
 172:Core/Src/main.c ****   AdcHandle.Init.ContinuousConvMode    = ENABLE;                       /* Continuous mode disabled 
 223              		.loc 1 172 3 is_stmt 1 view .LVU41
 172:Core/Src/main.c ****   AdcHandle.Init.ContinuousConvMode    = ENABLE;                       /* Continuous mode disabled 
 224              		.loc 1 172 40 is_stmt 0 view .LVU42
 225 001e 0376     		strb	r3, [r0, #24]
 173:Core/Src/main.c ****   AdcHandle.Init.NbrOfConversion       = 1;                             /* Parameter discarded beca
 226              		.loc 1 173 3 is_stmt 1 view .LVU43
 173:Core/Src/main.c ****   AdcHandle.Init.NbrOfConversion       = 1;                             /* Parameter discarded beca
 227              		.loc 1 173 40 is_stmt 0 view .LVU44
 228 0020 0122     		movs	r2, #1
 229 0022 4276     		strb	r2, [r0, #25]
 174:Core/Src/main.c ****   AdcHandle.Init.DiscontinuousConvMode = DISABLE;                       /* Parameter discarded beca
 230              		.loc 1 174 3 is_stmt 1 view .LVU45
 174:Core/Src/main.c ****   AdcHandle.Init.DiscontinuousConvMode = DISABLE;                       /* Parameter discarded beca
 231              		.loc 1 174 40 is_stmt 0 view .LVU46
 232 0024 C261     		str	r2, [r0, #28]
 175:Core/Src/main.c ****   AdcHandle.Init.NbrOfDiscConversion   = 1;                             /* Parameter discarded beca
 233              		.loc 1 175 3 is_stmt 1 view .LVU47
 175:Core/Src/main.c ****   AdcHandle.Init.NbrOfDiscConversion   = 1;                             /* Parameter discarded beca
 234              		.loc 1 175 40 is_stmt 0 view .LVU48
 235 0026 80F82030 		strb	r3, [r0, #32]
 176:Core/Src/main.c ****   AdcHandle.Init.ExternalTrigConv      = ADC_SOFTWARE_START;  /* Trig of conversion start done by e
 236              		.loc 1 176 3 is_stmt 1 view .LVU49
 176:Core/Src/main.c ****   AdcHandle.Init.ExternalTrigConv      = ADC_SOFTWARE_START;  /* Trig of conversion start done by e
 237              		.loc 1 176 40 is_stmt 0 view .LVU50
 238 002a 4262     		str	r2, [r0, #36]
 177:Core/Src/main.c ****   AdcHandle.Init.ExternalTrigConvEdge  = ADC_EXTERNALTRIGCONVEDGE_NONE;
 239              		.loc 1 177 3 is_stmt 1 view .LVU51
ARM GAS  C:\Users\pierc\AppData\Local\Temp\ccLUFoU0.s 			page 12


 177:Core/Src/main.c ****   AdcHandle.Init.ExternalTrigConvEdge  = ADC_EXTERNALTRIGCONVEDGE_NONE;
 240              		.loc 1 177 40 is_stmt 0 view .LVU52
 241 002c 8262     		str	r2, [r0, #40]
 178:Core/Src/main.c ****   AdcHandle.Init.DMAContinuousRequests = DISABLE;
 242              		.loc 1 178 3 is_stmt 1 view .LVU53
 178:Core/Src/main.c ****   AdcHandle.Init.DMAContinuousRequests = DISABLE;
 243              		.loc 1 178 40 is_stmt 0 view .LVU54
 244 002e C362     		str	r3, [r0, #44]
 179:Core/Src/main.c ****   AdcHandle.Init.Overrun               = ADC_OVR_DATA_OVERWRITTEN;
 245              		.loc 1 179 3 is_stmt 1 view .LVU55
 179:Core/Src/main.c ****   AdcHandle.Init.Overrun               = ADC_OVR_DATA_OVERWRITTEN;
 246              		.loc 1 179 40 is_stmt 0 view .LVU56
 247 0030 80F83030 		strb	r3, [r0, #48]
 180:Core/Src/main.c **** 
 248              		.loc 1 180 3 is_stmt 1 view .LVU57
 180:Core/Src/main.c **** 
 249              		.loc 1 180 40 is_stmt 0 view .LVU58
 250 0034 4363     		str	r3, [r0, #52]
 182:Core/Src/main.c ****   {
 251              		.loc 1 182 3 is_stmt 1 view .LVU59
 182:Core/Src/main.c ****   {
 252              		.loc 1 182 7 is_stmt 0 view .LVU60
 253 0036 FFF7FEFF 		bl	HAL_ADC_Init
 254              	.LVL4:
 182:Core/Src/main.c ****   {
 255              		.loc 1 182 6 view .LVU61
 256 003a 80B9     		cbnz	r0, .L14
 187:Core/Src/main.c ****   sConfig.Rank         = ADC_REGULAR_RANK_1;
 257              		.loc 1 187 3 is_stmt 1 view .LVU62
 187:Core/Src/main.c ****   sConfig.Rank         = ADC_REGULAR_RANK_1;
 258              		.loc 1 187 24 is_stmt 0 view .LVU63
 259 003c 0123     		movs	r3, #1
 260 003e 0093     		str	r3, [sp]
 188:Core/Src/main.c ****   sConfig.SamplingTime = ADC_SAMPLETIME_181CYCLES_5;
 261              		.loc 1 188 3 is_stmt 1 view .LVU64
 188:Core/Src/main.c ****   sConfig.SamplingTime = ADC_SAMPLETIME_181CYCLES_5;
 262              		.loc 1 188 24 is_stmt 0 view .LVU65
 263 0040 0193     		str	r3, [sp, #4]
 189:Core/Src/main.c ****   sConfig.SingleDiff   = ADC_SINGLE_ENDED;
 264              		.loc 1 189 3 is_stmt 1 view .LVU66
 189:Core/Src/main.c ****   sConfig.SingleDiff   = ADC_SINGLE_ENDED;
 265              		.loc 1 189 24 is_stmt 0 view .LVU67
 266 0042 0623     		movs	r3, #6
 267 0044 0293     		str	r3, [sp, #8]
 190:Core/Src/main.c ****   sConfig.OffsetNumber = ADC_OFFSET_NONE;
 268              		.loc 1 190 3 is_stmt 1 view .LVU68
 190:Core/Src/main.c ****   sConfig.OffsetNumber = ADC_OFFSET_NONE;
 269              		.loc 1 190 24 is_stmt 0 view .LVU69
 270 0046 0023     		movs	r3, #0
 271 0048 0393     		str	r3, [sp, #12]
 191:Core/Src/main.c ****   sConfig.Offset       = 0;
 272              		.loc 1 191 3 is_stmt 1 view .LVU70
 191:Core/Src/main.c ****   sConfig.Offset       = 0;
 273              		.loc 1 191 24 is_stmt 0 view .LVU71
 274 004a 0493     		str	r3, [sp, #16]
 192:Core/Src/main.c ****   
 275              		.loc 1 192 3 is_stmt 1 view .LVU72
ARM GAS  C:\Users\pierc\AppData\Local\Temp\ccLUFoU0.s 			page 13


 192:Core/Src/main.c ****   
 276              		.loc 1 192 24 is_stmt 0 view .LVU73
 277 004c 0593     		str	r3, [sp, #20]
 194:Core/Src/main.c ****   {
 278              		.loc 1 194 3 is_stmt 1 view .LVU74
 194:Core/Src/main.c ****   {
 279              		.loc 1 194 7 is_stmt 0 view .LVU75
 280 004e 6946     		mov	r1, sp
 281 0050 0548     		ldr	r0, .L16
 282 0052 FFF7FEFF 		bl	HAL_ADC_ConfigChannel
 283              	.LVL5:
 194:Core/Src/main.c ****   {
 284              		.loc 1 194 6 view .LVU76
 285 0056 20B9     		cbnz	r0, .L15
 202:Core/Src/main.c **** static void I2C_Config(void)
 286              		.loc 1 202 1 view .LVU77
 287 0058 07B0     		add	sp, sp, #28
 288              	.LCFI5:
 289              		.cfi_remember_state
 290              		.cfi_def_cfa_offset 4
 291              		@ sp needed
 292 005a 5DF804FB 		ldr	pc, [sp], #4
 293              	.L14:
 294              	.LCFI6:
 295              		.cfi_restore_state
 185:Core/Src/main.c ****   }
 296              		.loc 1 185 5 is_stmt 1 view .LVU78
 297 005e FFF7FEFF 		bl	Error_Handler
 298              	.LVL6:
 299              	.L15:
 197:Core/Src/main.c ****   }
 300              		.loc 1 197 5 view .LVU79
 301 0062 FFF7FEFF 		bl	Error_Handler
 302              	.LVL7:
 303              	.L17:
 304 0066 00BF     		.align	2
 305              	.L16:
 306 0068 00000000 		.word	AdcHandle
 307              		.cfi_endproc
 308              	.LFE135:
 310              		.section	.text.TIM_Config,"ax",%progbits
 311              		.align	1
 312              		.syntax unified
 313              		.thumb
 314              		.thumb_func
 315              		.fpu fpv4-sp-d16
 317              	TIM_Config:
 318              	.LFB137:
 238:Core/Src/main.c ****   TIM_MasterConfigTypeDef sMasterConfig;
 319              		.loc 1 238 1 view -0
 320              		.cfi_startproc
 321              		@ args = 0, pretend = 0, frame = 16
 322              		@ frame_needed = 0, uses_anonymous_args = 0
 323 0000 10B5     		push	{r4, lr}
 324              	.LCFI7:
 325              		.cfi_def_cfa_offset 8
 326              		.cfi_offset 4, -8
ARM GAS  C:\Users\pierc\AppData\Local\Temp\ccLUFoU0.s 			page 14


 327              		.cfi_offset 14, -4
 328 0002 84B0     		sub	sp, sp, #16
 329              	.LCFI8:
 330              		.cfi_def_cfa_offset 24
 239:Core/Src/main.c ****   
 331              		.loc 1 239 3 view .LVU81
 242:Core/Src/main.c ****   
 332              		.loc 1 242 3 view .LVU82
 242:Core/Src/main.c ****   
 333              		.loc 1 242 22 is_stmt 0 view .LVU83
 334 0004 134C     		ldr	r4, .L24
 335 0006 144B     		ldr	r3, .L24+4
 336 0008 2360     		str	r3, [r4]
 256:Core/Src/main.c ****   TimHandle.Init.Prescaler = (1099-1);
 337              		.loc 1 256 3 is_stmt 1 view .LVU84
 256:Core/Src/main.c ****   TimHandle.Init.Prescaler = (1099-1);
 338              		.loc 1 256 29 is_stmt 0 view .LVU85
 339 000a FFF7FEFF 		bl	HAL_RCC_GetPCLK1Freq
 340              	.LVL8:
 256:Core/Src/main.c ****   TimHandle.Init.Prescaler = (1099-1);
 341              		.loc 1 256 52 view .LVU86
 342 000e 134B     		ldr	r3, .L24+8
 343 0010 A3FB0023 		umull	r2, r3, r3, r0
 344 0014 DB0C     		lsrs	r3, r3, #19
 256:Core/Src/main.c ****   TimHandle.Init.Prescaler = (1099-1);
 345              		.loc 1 256 83 view .LVU87
 346 0016 013B     		subs	r3, r3, #1
 256:Core/Src/main.c ****   TimHandle.Init.Prescaler = (1099-1);
 347              		.loc 1 256 25 view .LVU88
 348 0018 E360     		str	r3, [r4, #12]
 257:Core/Src/main.c ****   TimHandle.Init.ClockDivision = TIM_CLOCKDIVISION_DIV1;
 349              		.loc 1 257 3 is_stmt 1 view .LVU89
 257:Core/Src/main.c ****   TimHandle.Init.ClockDivision = TIM_CLOCKDIVISION_DIV1;
 350              		.loc 1 257 28 is_stmt 0 view .LVU90
 351 001a 40F24A43 		movw	r3, #1098
 352 001e 6360     		str	r3, [r4, #4]
 258:Core/Src/main.c ****   TimHandle.Init.CounterMode = TIM_COUNTERMODE_UP;
 353              		.loc 1 258 3 is_stmt 1 view .LVU91
 258:Core/Src/main.c ****   TimHandle.Init.CounterMode = TIM_COUNTERMODE_UP;
 354              		.loc 1 258 32 is_stmt 0 view .LVU92
 355 0020 0023     		movs	r3, #0
 356 0022 2361     		str	r3, [r4, #16]
 259:Core/Src/main.c ****   TimHandle.Init.RepetitionCounter = 0x0;
 357              		.loc 1 259 3 is_stmt 1 view .LVU93
 259:Core/Src/main.c ****   TimHandle.Init.RepetitionCounter = 0x0;
 358              		.loc 1 259 30 is_stmt 0 view .LVU94
 359 0024 A360     		str	r3, [r4, #8]
 260:Core/Src/main.c ****   TimHandle.Init.AutoReloadPreload = TIM_AUTORELOAD_PRELOAD_DISABLE;
 360              		.loc 1 260 3 is_stmt 1 view .LVU95
 260:Core/Src/main.c ****   TimHandle.Init.AutoReloadPreload = TIM_AUTORELOAD_PRELOAD_DISABLE;
 361              		.loc 1 260 36 is_stmt 0 view .LVU96
 362 0026 6361     		str	r3, [r4, #20]
 261:Core/Src/main.c ****   
 363              		.loc 1 261 3 is_stmt 1 view .LVU97
 261:Core/Src/main.c ****   
 364              		.loc 1 261 36 is_stmt 0 view .LVU98
 365 0028 A361     		str	r3, [r4, #24]
ARM GAS  C:\Users\pierc\AppData\Local\Temp\ccLUFoU0.s 			page 15


 263:Core/Src/main.c ****   {
 366              		.loc 1 263 3 is_stmt 1 view .LVU99
 263:Core/Src/main.c ****   {
 367              		.loc 1 263 7 is_stmt 0 view .LVU100
 368 002a 2046     		mov	r0, r4
 369 002c FFF7FEFF 		bl	HAL_TIM_Base_Init
 370              	.LVL9:
 263:Core/Src/main.c ****   {
 371              		.loc 1 263 6 view .LVU101
 372 0030 58B9     		cbnz	r0, .L22
 270:Core/Src/main.c ****   sMasterConfig.MasterOutputTrigger2 = TIM_TRGO2_RESET;
 373              		.loc 1 270 3 is_stmt 1 view .LVU102
 270:Core/Src/main.c ****   sMasterConfig.MasterOutputTrigger2 = TIM_TRGO2_RESET;
 374              		.loc 1 270 37 is_stmt 0 view .LVU103
 375 0032 2023     		movs	r3, #32
 376 0034 0193     		str	r3, [sp, #4]
 271:Core/Src/main.c ****   sMasterConfig.MasterSlaveMode = TIM_MASTERSLAVEMODE_DISABLE;
 377              		.loc 1 271 3 is_stmt 1 view .LVU104
 271:Core/Src/main.c ****   sMasterConfig.MasterSlaveMode = TIM_MASTERSLAVEMODE_DISABLE;
 378              		.loc 1 271 38 is_stmt 0 view .LVU105
 379 0036 0023     		movs	r3, #0
 380 0038 0293     		str	r3, [sp, #8]
 272:Core/Src/main.c **** 
 381              		.loc 1 272 3 is_stmt 1 view .LVU106
 272:Core/Src/main.c **** 
 382              		.loc 1 272 33 is_stmt 0 view .LVU107
 383 003a 0393     		str	r3, [sp, #12]
 274:Core/Src/main.c ****   {
 384              		.loc 1 274 3 is_stmt 1 view .LVU108
 274:Core/Src/main.c ****   {
 385              		.loc 1 274 7 is_stmt 0 view .LVU109
 386 003c 01A9     		add	r1, sp, #4
 387 003e 0548     		ldr	r0, .L24
 388 0040 FFF7FEFF 		bl	HAL_TIMEx_MasterConfigSynchronization
 389              	.LVL10:
 274:Core/Src/main.c ****   {
 390              		.loc 1 274 6 view .LVU110
 391 0044 18B9     		cbnz	r0, .L23
 280:Core/Src/main.c **** 
 392              		.loc 1 280 1 view .LVU111
 393 0046 04B0     		add	sp, sp, #16
 394              	.LCFI9:
 395              		.cfi_remember_state
 396              		.cfi_def_cfa_offset 8
 397              		@ sp needed
 398 0048 10BD     		pop	{r4, pc}
 399              	.L22:
 400              	.LCFI10:
 401              		.cfi_restore_state
 266:Core/Src/main.c ****   }
 402              		.loc 1 266 5 is_stmt 1 view .LVU112
 403 004a FFF7FEFF 		bl	Error_Handler
 404              	.LVL11:
 405              	.L23:
 277:Core/Src/main.c ****   }
 406              		.loc 1 277 5 view .LVU113
 407 004e FFF7FEFF 		bl	Error_Handler
ARM GAS  C:\Users\pierc\AppData\Local\Temp\ccLUFoU0.s 			page 16


 408              	.LVL12:
 409              	.L25:
 410 0052 00BF     		.align	2
 411              	.L24:
 412 0054 00000000 		.word	TimHandle
 413 0058 002C0140 		.word	1073818624
 414 005c 518C207A 		.word	2048953425
 415              		.cfi_endproc
 416              	.LFE137:
 418              		.section	.text.I2C_Config,"ax",%progbits
 419              		.align	1
 420              		.syntax unified
 421              		.thumb
 422              		.thumb_func
 423              		.fpu fpv4-sp-d16
 425              	I2C_Config:
 426              	.LFB136:
 204:Core/Src/main.c ****    I2CHandle.Instance = I2C1;
 427              		.loc 1 204 1 view -0
 428              		.cfi_startproc
 429              		@ args = 0, pretend = 0, frame = 0
 430              		@ frame_needed = 0, uses_anonymous_args = 0
 431 0000 08B5     		push	{r3, lr}
 432              	.LCFI11:
 433              		.cfi_def_cfa_offset 8
 434              		.cfi_offset 3, -8
 435              		.cfi_offset 14, -4
 205:Core/Src/main.c ****   I2CHandle.Init.Timing= 0x2000090E;
 436              		.loc 1 205 4 view .LVU115
 205:Core/Src/main.c ****   I2CHandle.Init.Timing= 0x2000090E;
 437              		.loc 1 205 23 is_stmt 0 view .LVU116
 438 0002 1148     		ldr	r0, .L34
 439 0004 114B     		ldr	r3, .L34+4
 440 0006 0360     		str	r3, [r0]
 206:Core/Src/main.c ****   I2CHandle.Init.OwnAddress1= 0;
 441              		.loc 1 206 3 is_stmt 1 view .LVU117
 206:Core/Src/main.c ****   I2CHandle.Init.OwnAddress1= 0;
 442              		.loc 1 206 24 is_stmt 0 view .LVU118
 443 0008 114B     		ldr	r3, .L34+8
 444 000a 4360     		str	r3, [r0, #4]
 207:Core/Src/main.c ****   I2CHandle.Init.AddressingMode = I2C_ADDRESSINGMODE_7BIT;
 445              		.loc 1 207 3 is_stmt 1 view .LVU119
 207:Core/Src/main.c ****   I2CHandle.Init.AddressingMode = I2C_ADDRESSINGMODE_7BIT;
 446              		.loc 1 207 29 is_stmt 0 view .LVU120
 447 000c 0023     		movs	r3, #0
 448 000e 8360     		str	r3, [r0, #8]
 208:Core/Src/main.c ****   I2CHandle.Init.DualAddressMode = I2C_DUALADDRESS_DISABLE;
 449              		.loc 1 208 3 is_stmt 1 view .LVU121
 208:Core/Src/main.c ****   I2CHandle.Init.DualAddressMode = I2C_DUALADDRESS_DISABLE;
 450              		.loc 1 208 33 is_stmt 0 view .LVU122
 451 0010 0122     		movs	r2, #1
 452 0012 C260     		str	r2, [r0, #12]
 209:Core/Src/main.c ****   I2CHandle.Init.OwnAddress2 = 0;
 453              		.loc 1 209 3 is_stmt 1 view .LVU123
 209:Core/Src/main.c ****   I2CHandle.Init.OwnAddress2 = 0;
 454              		.loc 1 209 34 is_stmt 0 view .LVU124
 455 0014 0361     		str	r3, [r0, #16]
ARM GAS  C:\Users\pierc\AppData\Local\Temp\ccLUFoU0.s 			page 17


 210:Core/Src/main.c ****   I2CHandle.Init.OwnAddress2Masks = I2C_OA2_NOMASK;
 456              		.loc 1 210 3 is_stmt 1 view .LVU125
 210:Core/Src/main.c ****   I2CHandle.Init.OwnAddress2Masks = I2C_OA2_NOMASK;
 457              		.loc 1 210 30 is_stmt 0 view .LVU126
 458 0016 4361     		str	r3, [r0, #20]
 211:Core/Src/main.c ****   I2CHandle.Init.GeneralCallMode = I2C_GENERALCALL_DISABLE;
 459              		.loc 1 211 3 is_stmt 1 view .LVU127
 211:Core/Src/main.c ****   I2CHandle.Init.GeneralCallMode = I2C_GENERALCALL_DISABLE;
 460              		.loc 1 211 35 is_stmt 0 view .LVU128
 461 0018 8361     		str	r3, [r0, #24]
 212:Core/Src/main.c ****   I2CHandle.Init.NoStretchMode = I2C_NOSTRETCH_DISABLE;
 462              		.loc 1 212 3 is_stmt 1 view .LVU129
 212:Core/Src/main.c ****   I2CHandle.Init.NoStretchMode = I2C_NOSTRETCH_DISABLE;
 463              		.loc 1 212 34 is_stmt 0 view .LVU130
 464 001a C361     		str	r3, [r0, #28]
 213:Core/Src/main.c ****   if (HAL_I2C_Init(&I2CHandle) != HAL_OK)
 465              		.loc 1 213 3 is_stmt 1 view .LVU131
 213:Core/Src/main.c ****   if (HAL_I2C_Init(&I2CHandle) != HAL_OK)
 466              		.loc 1 213 32 is_stmt 0 view .LVU132
 467 001c 0362     		str	r3, [r0, #32]
 214:Core/Src/main.c ****   {
 468              		.loc 1 214 3 is_stmt 1 view .LVU133
 214:Core/Src/main.c ****   {
 469              		.loc 1 214 7 is_stmt 0 view .LVU134
 470 001e FFF7FEFF 		bl	HAL_I2C_Init
 471              	.LVL13:
 214:Core/Src/main.c ****   {
 472              		.loc 1 214 6 view .LVU135
 473 0022 50B9     		cbnz	r0, .L31
 220:Core/Src/main.c ****   {
 474              		.loc 1 220 3 is_stmt 1 view .LVU136
 220:Core/Src/main.c ****   {
 475              		.loc 1 220 7 is_stmt 0 view .LVU137
 476 0024 0021     		movs	r1, #0
 477 0026 0848     		ldr	r0, .L34
 478 0028 FFF7FEFF 		bl	HAL_I2CEx_ConfigAnalogFilter
 479              	.LVL14:
 220:Core/Src/main.c ****   {
 480              		.loc 1 220 6 view .LVU138
 481 002c 38B9     		cbnz	r0, .L32
 226:Core/Src/main.c ****   {
 482              		.loc 1 226 3 is_stmt 1 view .LVU139
 226:Core/Src/main.c ****   {
 483              		.loc 1 226 7 is_stmt 0 view .LVU140
 484 002e 0021     		movs	r1, #0
 485 0030 0548     		ldr	r0, .L34
 486 0032 FFF7FEFF 		bl	HAL_I2CEx_ConfigDigitalFilter
 487              	.LVL15:
 226:Core/Src/main.c ****   {
 488              		.loc 1 226 6 view .LVU141
 489 0036 20B9     		cbnz	r0, .L33
 230:Core/Src/main.c **** 
 490              		.loc 1 230 1 view .LVU142
 491 0038 08BD     		pop	{r3, pc}
 492              	.L31:
 216:Core/Src/main.c ****   }
 493              		.loc 1 216 5 is_stmt 1 view .LVU143
ARM GAS  C:\Users\pierc\AppData\Local\Temp\ccLUFoU0.s 			page 18


 494 003a FFF7FEFF 		bl	Error_Handler
 495              	.LVL16:
 496              	.L32:
 222:Core/Src/main.c ****   }
 497              		.loc 1 222 5 view .LVU144
 498 003e FFF7FEFF 		bl	Error_Handler
 499              	.LVL17:
 500              	.L33:
 228:Core/Src/main.c ****   }
 501              		.loc 1 228 5 view .LVU145
 502 0042 FFF7FEFF 		bl	Error_Handler
 503              	.LVL18:
 504              	.L35:
 505 0046 00BF     		.align	2
 506              	.L34:
 507 0048 00000000 		.word	I2CHandle
 508 004c 00540040 		.word	1073763328
 509 0050 0E090020 		.word	536873230
 510              		.cfi_endproc
 511              	.LFE136:
 513              		.section	.text.SystemClock_Config,"ax",%progbits
 514              		.align	1
 515              		.global	SystemClock_Config
 516              		.syntax unified
 517              		.thumb
 518              		.thumb_func
 519              		.fpu fpv4-sp-d16
 521              	SystemClock_Config:
 522              	.LFB134:
 126:Core/Src/main.c ****   RCC_ClkInitTypeDef RCC_ClkInitStruct;
 523              		.loc 1 126 1 view -0
 524              		.cfi_startproc
 525              		@ args = 0, pretend = 0, frame = 64
 526              		@ frame_needed = 0, uses_anonymous_args = 0
 527 0000 00B5     		push	{lr}
 528              	.LCFI12:
 529              		.cfi_def_cfa_offset 4
 530              		.cfi_offset 14, -4
 531 0002 91B0     		sub	sp, sp, #68
 532              	.LCFI13:
 533              		.cfi_def_cfa_offset 72
 127:Core/Src/main.c ****   RCC_OscInitTypeDef RCC_OscInitStruct;
 534              		.loc 1 127 3 view .LVU147
 128:Core/Src/main.c ****   
 535              		.loc 1 128 3 view .LVU148
 131:Core/Src/main.c ****   RCC_OscInitStruct.PLL.PLLState = RCC_PLL_ON;
 536              		.loc 1 131 3 view .LVU149
 131:Core/Src/main.c ****   RCC_OscInitStruct.PLL.PLLState = RCC_PLL_ON;
 537              		.loc 1 131 36 is_stmt 0 view .LVU150
 538 0004 0023     		movs	r3, #0
 539 0006 0193     		str	r3, [sp, #4]
 132:Core/Src/main.c ****   RCC_OscInitStruct.PLL.PLLSource = RCC_PLLSOURCE_HSI;
 540              		.loc 1 132 3 is_stmt 1 view .LVU151
 132:Core/Src/main.c ****   RCC_OscInitStruct.PLL.PLLSource = RCC_PLLSOURCE_HSI;
 541              		.loc 1 132 34 is_stmt 0 view .LVU152
 542 0008 0223     		movs	r3, #2
 543 000a 0793     		str	r3, [sp, #28]
ARM GAS  C:\Users\pierc\AppData\Local\Temp\ccLUFoU0.s 			page 19


 133:Core/Src/main.c ****   RCC_OscInitStruct.PLL.PREDIV = RCC_PREDIV_DIV2;
 544              		.loc 1 133 3 is_stmt 1 view .LVU153
 133:Core/Src/main.c ****   RCC_OscInitStruct.PLL.PREDIV = RCC_PREDIV_DIV2;
 545              		.loc 1 133 35 is_stmt 0 view .LVU154
 546 000c 4FF40043 		mov	r3, #32768
 547 0010 0893     		str	r3, [sp, #32]
 134:Core/Src/main.c ****   RCC_OscInitStruct.PLL.PLLMUL = RCC_PLL_MUL16;
 548              		.loc 1 134 3 is_stmt 1 view .LVU155
 134:Core/Src/main.c ****   RCC_OscInitStruct.PLL.PLLMUL = RCC_PLL_MUL16;
 549              		.loc 1 134 32 is_stmt 0 view .LVU156
 550 0012 0123     		movs	r3, #1
 551 0014 0A93     		str	r3, [sp, #40]
 135:Core/Src/main.c ****   RCC_OscInitStruct.HSICalibrationValue = RCC_HSICALIBRATION_DEFAULT;
 552              		.loc 1 135 3 is_stmt 1 view .LVU157
 135:Core/Src/main.c ****   RCC_OscInitStruct.HSICalibrationValue = RCC_HSICALIBRATION_DEFAULT;
 553              		.loc 1 135 32 is_stmt 0 view .LVU158
 554 0016 4FF46013 		mov	r3, #3670016
 555 001a 0993     		str	r3, [sp, #36]
 136:Core/Src/main.c ****   if (HAL_RCC_OscConfig(&RCC_OscInitStruct)!= HAL_OK)
 556              		.loc 1 136 3 is_stmt 1 view .LVU159
 136:Core/Src/main.c ****   if (HAL_RCC_OscConfig(&RCC_OscInitStruct)!= HAL_OK)
 557              		.loc 1 136 41 is_stmt 0 view .LVU160
 558 001c 1023     		movs	r3, #16
 559 001e 0593     		str	r3, [sp, #20]
 137:Core/Src/main.c ****   {
 560              		.loc 1 137 3 is_stmt 1 view .LVU161
 137:Core/Src/main.c ****   {
 561              		.loc 1 137 7 is_stmt 0 view .LVU162
 562 0020 01A8     		add	r0, sp, #4
 563 0022 FFF7FEFF 		bl	HAL_RCC_OscConfig
 564              	.LVL19:
 137:Core/Src/main.c ****   {
 565              		.loc 1 137 6 view .LVU163
 566 0026 80B9     		cbnz	r0, .L40
 144:Core/Src/main.c ****   RCC_ClkInitStruct.SYSCLKSource = RCC_SYSCLKSOURCE_PLLCLK;
 567              		.loc 1 144 3 is_stmt 1 view .LVU164
 144:Core/Src/main.c ****   RCC_ClkInitStruct.SYSCLKSource = RCC_SYSCLKSOURCE_PLLCLK;
 568              		.loc 1 144 31 is_stmt 0 view .LVU165
 569 0028 0F23     		movs	r3, #15
 570 002a 0B93     		str	r3, [sp, #44]
 145:Core/Src/main.c ****   RCC_ClkInitStruct.AHBCLKDivider = RCC_SYSCLK_DIV1;
 571              		.loc 1 145 3 is_stmt 1 view .LVU166
 145:Core/Src/main.c ****   RCC_ClkInitStruct.AHBCLKDivider = RCC_SYSCLK_DIV1;
 572              		.loc 1 145 34 is_stmt 0 view .LVU167
 573 002c 0221     		movs	r1, #2
 574 002e 0C91     		str	r1, [sp, #48]
 146:Core/Src/main.c ****   RCC_ClkInitStruct.APB1CLKDivider = RCC_HCLK_DIV2;  
 575              		.loc 1 146 3 is_stmt 1 view .LVU168
 146:Core/Src/main.c ****   RCC_ClkInitStruct.APB1CLKDivider = RCC_HCLK_DIV2;  
 576              		.loc 1 146 35 is_stmt 0 view .LVU169
 577 0030 0023     		movs	r3, #0
 578 0032 0D93     		str	r3, [sp, #52]
 147:Core/Src/main.c ****   RCC_ClkInitStruct.APB2CLKDivider = RCC_HCLK_DIV1;
 579              		.loc 1 147 3 is_stmt 1 view .LVU170
 147:Core/Src/main.c ****   RCC_ClkInitStruct.APB2CLKDivider = RCC_HCLK_DIV1;
 580              		.loc 1 147 36 is_stmt 0 view .LVU171
 581 0034 4FF48062 		mov	r2, #1024
ARM GAS  C:\Users\pierc\AppData\Local\Temp\ccLUFoU0.s 			page 20


 582 0038 0E92     		str	r2, [sp, #56]
 148:Core/Src/main.c ****   if (HAL_RCC_ClockConfig(&RCC_ClkInitStruct, FLASH_LATENCY_2)!= HAL_OK)
 583              		.loc 1 148 3 is_stmt 1 view .LVU172
 148:Core/Src/main.c ****   if (HAL_RCC_ClockConfig(&RCC_ClkInitStruct, FLASH_LATENCY_2)!= HAL_OK)
 584              		.loc 1 148 36 is_stmt 0 view .LVU173
 585 003a 0F93     		str	r3, [sp, #60]
 149:Core/Src/main.c ****   {
 586              		.loc 1 149 3 is_stmt 1 view .LVU174
 149:Core/Src/main.c ****   {
 587              		.loc 1 149 7 is_stmt 0 view .LVU175
 588 003c 0BA8     		add	r0, sp, #44
 589 003e FFF7FEFF 		bl	HAL_RCC_ClockConfig
 590              	.LVL20:
 149:Core/Src/main.c ****   {
 591              		.loc 1 149 6 view .LVU176
 592 0042 20B9     		cbnz	r0, .L41
 153:Core/Src/main.c **** 
 593              		.loc 1 153 1 view .LVU177
 594 0044 11B0     		add	sp, sp, #68
 595              	.LCFI14:
 596              		.cfi_remember_state
 597              		.cfi_def_cfa_offset 4
 598              		@ sp needed
 599 0046 5DF804FB 		ldr	pc, [sp], #4
 600              	.L40:
 601              	.LCFI15:
 602              		.cfi_restore_state
 139:Core/Src/main.c ****   }
 603              		.loc 1 139 5 is_stmt 1 view .LVU178
 604 004a FFF7FEFF 		bl	Error_Handler
 605              	.LVL21:
 606              	.L41:
 151:Core/Src/main.c ****   }
 607              		.loc 1 151 5 view .LVU179
 608 004e FFF7FEFF 		bl	Error_Handler
 609              	.LVL22:
 610              		.cfi_endproc
 611              	.LFE134:
 613              		.section	.rodata.main.str1.4,"aMS",%progbits,1
 614              		.align	2
 615              	.LC0:
 616 0000 54656D70 		.ascii	"Temp:\000"
 616      3A00
 617              		.global	__aeabi_i2d
 618              		.global	__aeabi_dmul
 619              		.global	__aeabi_dsub
 620              		.global	__aeabi_ddiv
 621              		.global	__aeabi_d2f
 622              		.global	__aeabi_f2d
 623              		.global	__aeabi_dadd
 624              		.section	.text.main,"ax",%progbits
 625              		.align	1
 626              		.global	main
 627              		.syntax unified
 628              		.thumb
 629              		.thumb_func
 630              		.fpu fpv4-sp-d16
ARM GAS  C:\Users\pierc\AppData\Local\Temp\ccLUFoU0.s 			page 21


 632              	main:
 633              	.LFB133:
  27:Core/Src/main.c **** 	uint16_t raw;
 634              		.loc 1 27 1 view -0
 635              		.cfi_startproc
 636              		@ args = 0, pretend = 0, frame = 16
 637              		@ frame_needed = 0, uses_anonymous_args = 0
 638 0000 30B5     		push	{r4, r5, lr}
 639              	.LCFI16:
 640              		.cfi_def_cfa_offset 12
 641              		.cfi_offset 4, -12
 642              		.cfi_offset 5, -8
 643              		.cfi_offset 14, -4
 644 0002 2DED028B 		vpush.64	{d8}
 645              	.LCFI17:
 646              		.cfi_def_cfa_offset 20
 647              		.cfi_offset 80, -20
 648              		.cfi_offset 81, -16
 649 0006 89B0     		sub	sp, sp, #36
 650              	.LCFI18:
 651              		.cfi_def_cfa_offset 56
  28:Core/Src/main.c **** //char str[80];
 652              		.loc 1 28 2 view .LVU181
  30:Core/Src/main.c **** 	float x;
 653              		.loc 1 30 2 view .LVU182
  31:Core/Src/main.c **** 	double digital;
 654              		.loc 1 31 2 view .LVU183
  32:Core/Src/main.c **** 	float Temp;
 655              		.loc 1 32 2 view .LVU184
  33:Core/Src/main.c **** 	char buff[10];
 656              		.loc 1 33 2 view .LVU185
  34:Core/Src/main.c ****   
 657              		.loc 1 34 2 view .LVU186
  37:Core/Src/main.c **** 	LiquidCrystal(GPIOA, GPIO_PIN_1, GPIO_PIN_4, GPIO_PIN_5, GPIO_PIN_6, GPIO_PIN_7, GPIO_PIN_9, GPIO_
 658              		.loc 1 37 3 view .LVU187
 659 0008 FFF7FEFF 		bl	HAL_Init
 660              	.LVL23:
  38:Core/Src/main.c ****   
 661              		.loc 1 38 2 view .LVU188
 662 000c 4FF48073 		mov	r3, #256
 663 0010 0393     		str	r3, [sp, #12]
 664 0012 4FF40073 		mov	r3, #512
 665 0016 0293     		str	r3, [sp, #8]
 666 0018 8023     		movs	r3, #128
 667 001a 0193     		str	r3, [sp, #4]
 668 001c 4023     		movs	r3, #64
 669 001e 0093     		str	r3, [sp]
 670 0020 2023     		movs	r3, #32
 671 0022 1022     		movs	r2, #16
 672 0024 0221     		movs	r1, #2
 673 0026 4FF09040 		mov	r0, #1207959552
 674 002a FFF7FEFF 		bl	LiquidCrystal
 675              	.LVL24:
  40:Core/Src/main.c ****   // createChar(0,three);
 676              		.loc 1 40 3 view .LVU189
 677 002e 6448     		ldr	r0, .L46+56
 678 0030 FFF7FEFF 		bl	print
ARM GAS  C:\Users\pierc\AppData\Local\Temp\ccLUFoU0.s 			page 22


 679              	.LVL25:
  44:Core/Src/main.c **** 
 680              		.loc 1 44 3 view .LVU190
 681 0034 0121     		movs	r1, #1
 682 0036 0020     		movs	r0, #0
 683 0038 FFF7FEFF 		bl	setCursor
 684              	.LVL26:
  47:Core/Src/main.c ****   /* Configure the ADC peripheral */
 685              		.loc 1 47 3 view .LVU191
 686 003c FFF7FEFF 		bl	SystemClock_Config
 687              	.LVL27:
  49:Core/Src/main.c ****   
 688              		.loc 1 49 3 view .LVU192
 689 0040 FFF7FEFF 		bl	ADC_Config
 690              	.LVL28:
  52:Core/Src/main.c ****   
 691              		.loc 1 52 3 view .LVU193
 692 0044 FFF7FEFF 		bl	TIM_Config
 693              	.LVL29:
  54:Core/Src/main.c ****   /* Configure the I2C peripheral */
 694              		.loc 1 54 3 view .LVU194
 695 0048 FFF7FEFF 		bl	MX_GPIO_Init
 696              	.LVL30:
  56:Core/Src/main.c ****  
 697              		.loc 1 56 3 view .LVU195
 698 004c FFF7FEFF 		bl	I2C_Config
 699              	.LVL31:
  58:Core/Src/main.c ****   
 700              		.loc 1 58 3 view .LVU196
 701 0050 FFF7FEFF 		bl	MPU6050_Init
 702              	.LVL32:
  63:Core/Src/main.c ****   {
 703              		.loc 1 63 3 view .LVU197
  63:Core/Src/main.c ****   {
 704              		.loc 1 63 7 is_stmt 0 view .LVU198
 705 0054 5B48     		ldr	r0, .L46+60
 706 0056 FFF7FEFF 		bl	HAL_TIM_Base_Start
 707              	.LVL33:
  63:Core/Src/main.c ****   {
 708              		.loc 1 63 6 view .LVU199
 709 005a 08B1     		cbz	r0, .L43
  66:Core/Src/main.c **** 		
 710              		.loc 1 66 5 is_stmt 1 view .LVU200
 711 005c FFF7FEFF 		bl	Error_Handler
 712              	.LVL34:
 713              	.L43:
  70:Core/Src/main.c ****   HAL_NVIC_SetPriority(EXTI3_IRQn , 0, 0);
 714              		.loc 1 70 2 view .LVU201
 715 0060 5948     		ldr	r0, .L46+64
 716 0062 FFF7FEFF 		bl	HAL_ADC_Start
 717              	.LVL35:
  71:Core/Src/main.c ****   HAL_NVIC_EnableIRQ(EXTI3_IRQn);
 718              		.loc 1 71 3 view .LVU202
 719 0066 0022     		movs	r2, #0
 720 0068 1146     		mov	r1, r2
 721 006a 0920     		movs	r0, #9
 722 006c FFF7FEFF 		bl	HAL_NVIC_SetPriority
ARM GAS  C:\Users\pierc\AppData\Local\Temp\ccLUFoU0.s 			page 23


 723              	.LVL36:
  72:Core/Src/main.c ****   /* Infinite loop */
 724              		.loc 1 72 3 view .LVU203
 725 0070 0920     		movs	r0, #9
 726 0072 FFF7FEFF 		bl	HAL_NVIC_EnableIRQ
 727              	.LVL37:
 728              	.L44:
  74:Core/Src/main.c ****   {
 729              		.loc 1 74 3 discriminator 1 view .LVU204
  78:Core/Src/main.c **** 		
 730              		.loc 1 78 5 discriminator 1 view .LVU205
 731 0076 544C     		ldr	r4, .L46+64
 732 0078 4FF0FF31 		mov	r1, #-1
 733 007c 2046     		mov	r0, r4
 734 007e FFF7FEFF 		bl	HAL_ADC_PollForConversion
 735              	.LVL38:
  81:Core/Src/main.c **** 		digital = (double)(3.3/4095)*raw;
 736              		.loc 1 81 3 discriminator 1 view .LVU206
  81:Core/Src/main.c **** 		digital = (double)(3.3/4095)*raw;
 737              		.loc 1 81 9 is_stmt 0 discriminator 1 view .LVU207
 738 0082 2046     		mov	r0, r4
 739 0084 FFF7FEFF 		bl	HAL_ADC_GetValue
 740              	.LVL39:
  82:Core/Src/main.c **** 	
 741              		.loc 1 82 3 is_stmt 1 discriminator 1 view .LVU208
  82:Core/Src/main.c **** 	
 742              		.loc 1 82 31 is_stmt 0 discriminator 1 view .LVU209
 743 0088 80B2     		uxth	r0, r0
  82:Core/Src/main.c **** 	
 744              		.loc 1 82 31 discriminator 1 view .LVU210
 745 008a FFF7FEFF 		bl	__aeabi_i2d
 746              	.LVL40:
  82:Core/Src/main.c **** 	
 747              		.loc 1 82 11 discriminator 1 view .LVU211
 748 008e 3EA3     		adr	r3, .L46
 749 0090 D3E90023 		ldrd	r2, [r3]
 750 0094 FFF7FEFF 		bl	__aeabi_dmul
 751              	.LVL41:
 752 0098 0446     		mov	r4, r0
 753 009a 0D46     		mov	r5, r1
 754              	.LVL42:
  89:Core/Src/main.c **** 	
 755              		.loc 1 89 3 is_stmt 1 discriminator 1 view .LVU212
  89:Core/Src/main.c **** 	
 756              		.loc 1 89 20 is_stmt 0 discriminator 1 view .LVU213
 757 009c 0246     		mov	r2, r0
 758 009e 0B46     		mov	r3, r1
 759 00a0 3BA1     		adr	r1, .L46+8
 760 00a2 D1E90001 		ldrd	r0, [r1]
 761 00a6 FFF7FEFF 		bl	__aeabi_dsub
 762              	.LVL43:
  89:Core/Src/main.c **** 	
 763              		.loc 1 89 29 discriminator 1 view .LVU214
 764 00aa 3BA3     		adr	r3, .L46+16
 765 00ac D3E90023 		ldrd	r2, [r3]
 766 00b0 FFF7FEFF 		bl	__aeabi_dmul
 767              	.LVL44:
ARM GAS  C:\Users\pierc\AppData\Local\Temp\ccLUFoU0.s 			page 24


  89:Core/Src/main.c **** 	
 768              		.loc 1 89 14 discriminator 1 view .LVU215
 769 00b4 2246     		mov	r2, r4
 770 00b6 2B46     		mov	r3, r5
 771 00b8 FFF7FEFF 		bl	__aeabi_ddiv
 772              	.LVL45:
 773 00bc 41EC180B 		vmov	d8, r0, r1
 774              	.LVL46:
  91:Core/Src/main.c **** 		Temp = 1.0/x - 273.15;
 775              		.loc 1 91 3 is_stmt 1 discriminator 1 view .LVU216
  91:Core/Src/main.c **** 		Temp = 1.0/x - 273.15;
 776              		.loc 1 91 58 is_stmt 0 discriminator 1 view .LVU217
 777 00c0 41EC100B 		vmov	d0, r0, r1
 778 00c4 FFF7FEFF 		bl	log
 779              	.LVL47:
  91:Core/Src/main.c **** 		Temp = 1.0/x - 273.15;
 780              		.loc 1 91 58 discriminator 1 view .LVU218
 781 00c8 51EC100B 		vmov	r0, r1, d0
  91:Core/Src/main.c **** 		Temp = 1.0/x - 273.15;
 782              		.loc 1 91 51 discriminator 1 view .LVU219
 783 00cc FFF7FEFF 		bl	__aeabi_d2f
 784              	.LVL48:
 785 00d0 FFF7FEFF 		bl	__aeabi_f2d
 786              	.LVL49:
  91:Core/Src/main.c **** 		Temp = 1.0/x - 273.15;
 787              		.loc 1 91 49 discriminator 1 view .LVU220
 788 00d4 32A3     		adr	r3, .L46+24
 789 00d6 D3E90023 		ldrd	r2, [r3]
 790 00da FFF7FEFF 		bl	__aeabi_dmul
 791              	.LVL50:
  91:Core/Src/main.c **** 		Temp = 1.0/x - 273.15;
 792              		.loc 1 91 27 discriminator 1 view .LVU221
 793 00de 32A3     		adr	r3, .L46+32
 794 00e0 D3E90023 		ldrd	r2, [r3]
 795 00e4 FFF7FEFF 		bl	__aeabi_dadd
 796              	.LVL51:
 797 00e8 0446     		mov	r4, r0
 798              	.LVL52:
  91:Core/Src/main.c **** 		Temp = 1.0/x - 273.15;
 799              		.loc 1 91 27 discriminator 1 view .LVU222
 800 00ea 0D46     		mov	r5, r1
  91:Core/Src/main.c **** 		Temp = 1.0/x - 273.15;
 801              		.loc 1 91 116 discriminator 1 view .LVU223
 802 00ec B0EE480A 		vmov.f32	s0, s16
 803 00f0 F0EE680A 		vmov.f32	s1, s17
 804 00f4 FFF7FEFF 		bl	log
 805              	.LVL53:
 806 00f8 51EC100B 		vmov	r0, r1, d0
  91:Core/Src/main.c **** 		Temp = 1.0/x - 273.15;
 807              		.loc 1 91 104 discriminator 1 view .LVU224
 808 00fc FFF7FEFF 		bl	__aeabi_d2f
 809              	.LVL54:
 810 0100 F0EE080A 		vmov.f32	s1, #3.0e+0
 811 0104 00EE100A 		vmov	s0, r0
 812 0108 FFF7FEFF 		bl	powf
 813              	.LVL55:
 814 010c 10EE100A 		vmov	r0, s0
ARM GAS  C:\Users\pierc\AppData\Local\Temp\ccLUFoU0.s 			page 25


 815 0110 FFF7FEFF 		bl	__aeabi_f2d
 816              	.LVL56:
  91:Core/Src/main.c **** 		Temp = 1.0/x - 273.15;
 817              		.loc 1 91 102 discriminator 1 view .LVU225
 818 0114 26A3     		adr	r3, .L46+40
 819 0116 D3E90023 		ldrd	r2, [r3]
 820 011a FFF7FEFF 		bl	__aeabi_dmul
 821              	.LVL57:
 822 011e 0246     		mov	r2, r0
 823 0120 0B46     		mov	r3, r1
  91:Core/Src/main.c **** 		Temp = 1.0/x - 273.15;
 824              		.loc 1 91 75 discriminator 1 view .LVU226
 825 0122 2046     		mov	r0, r4
 826 0124 2946     		mov	r1, r5
 827 0126 FFF7FEFF 		bl	__aeabi_dsub
 828              	.LVL58:
  91:Core/Src/main.c **** 		Temp = 1.0/x - 273.15;
 829              		.loc 1 91 5 discriminator 1 view .LVU227
 830 012a FFF7FEFF 		bl	__aeabi_d2f
 831              	.LVL59:
  92:Core/Src/main.c **** 
 832              		.loc 1 92 3 is_stmt 1 discriminator 1 view .LVU228
  92:Core/Src/main.c **** 
 833              		.loc 1 92 13 is_stmt 0 discriminator 1 view .LVU229
 834 012e FFF7FEFF 		bl	__aeabi_f2d
 835              	.LVL60:
  92:Core/Src/main.c **** 
 836              		.loc 1 92 13 discriminator 1 view .LVU230
 837 0132 0246     		mov	r2, r0
 838 0134 0B46     		mov	r3, r1
 839 0136 0020     		movs	r0, #0
 840 0138 2449     		ldr	r1, .L46+68
 841 013a FFF7FEFF 		bl	__aeabi_ddiv
 842              	.LVL61:
  92:Core/Src/main.c **** 
 843              		.loc 1 92 16 discriminator 1 view .LVU231
 844 013e 1EA3     		adr	r3, .L46+48
 845 0140 D3E90023 		ldrd	r2, [r3]
 846 0144 FFF7FEFF 		bl	__aeabi_dsub
 847              	.LVL62:
  92:Core/Src/main.c **** 
 848              		.loc 1 92 8 discriminator 1 view .LVU232
 849 0148 FFF7FEFF 		bl	__aeabi_d2f
 850              	.LVL63:
  94:Core/Src/main.c **** 		setCursor(0,1);
 851              		.loc 1 94 5 is_stmt 1 discriminator 1 view .LVU233
 852 014c 00EE100A 		vmov	s0, r0
 853 0150 05A8     		add	r0, sp, #20
 854              	.LVL64:
  94:Core/Src/main.c **** 		setCursor(0,1);
 855              		.loc 1 94 5 is_stmt 0 discriminator 1 view .LVU234
 856 0152 FFF7FEFF 		bl	float_char
 857              	.LVL65:
  95:Core/Src/main.c ****     
 858              		.loc 1 95 3 is_stmt 1 discriminator 1 view .LVU235
 859 0156 0121     		movs	r1, #1
 860 0158 0020     		movs	r0, #0
ARM GAS  C:\Users\pierc\AppData\Local\Temp\ccLUFoU0.s 			page 26


 861 015a FFF7FEFF 		bl	setCursor
 862              	.LVL66:
  97:Core/Src/main.c ****     float_char(buff,ACCEL_X);
 863              		.loc 1 97 5 discriminator 1 view .LVU236
 864 015e 05A8     		add	r0, sp, #20
 865 0160 FFF7FEFF 		bl	print
 866              	.LVL67:
  98:Core/Src/main.c ****     setCursor(8,1);
 867              		.loc 1 98 5 discriminator 1 view .LVU237
 868 0164 1A4B     		ldr	r3, .L46+72
 869 0166 93ED000A 		vldr.32	s0, [r3]
 870 016a 05A8     		add	r0, sp, #20
 871 016c FFF7FEFF 		bl	float_char
 872              	.LVL68:
  99:Core/Src/main.c **** 	  
 873              		.loc 1 99 5 discriminator 1 view .LVU238
 874 0170 0121     		movs	r1, #1
 875 0172 0820     		movs	r0, #8
 876 0174 FFF7FEFF 		bl	setCursor
 877              	.LVL69:
 101:Core/Src/main.c **** 		
 878              		.loc 1 101 5 discriminator 1 view .LVU239
 879 0178 05A8     		add	r0, sp, #20
 880 017a FFF7FEFF 		bl	print
 881              	.LVL70:
 103:Core/Src/main.c **** 	}
 882              		.loc 1 103 3 discriminator 1 view .LVU240
 883 017e 4FF47A70 		mov	r0, #1000
 884 0182 FFF7FEFF 		bl	HAL_Delay
 885              	.LVL71:
  74:Core/Src/main.c ****   {
 886              		.loc 1 74 9 discriminator 1 view .LVU241
 887 0186 76E7     		b	.L44
 888              	.L47:
 889              		.align	3
 890              	.L46:
 891 0188 B4D934E7 		.word	-415966796
 892 018c 0C684A3F 		.word	1061840908
 893 0190 66666666 		.word	1717986918
 894 0194 66660A40 		.word	1074423398
 895 0198 00000000 		.word	0
 896 019c 0088C340 		.word	1086556160
 897 01a0 A3F77006 		.word	108066723
 898 01a4 A497303F 		.word	1060149156
 899 01a8 D662D52C 		.word	752181974
 900 01ac 67BF503F 		.word	1062256487
 901 01b0 D508E63D 		.word	1038485717
 902 01b4 A029D03D 		.word	1037052320
 903 01b8 66666666 		.word	1717986918
 904 01bc 66127140 		.word	1081152102
 905 01c0 00000000 		.word	.LC0
 906 01c4 00000000 		.word	TimHandle
 907 01c8 00000000 		.word	AdcHandle
 908 01cc 0000F03F 		.word	1072693248
 909 01d0 00000000 		.word	ACCEL_X
 910              		.cfi_endproc
 911              	.LFE133:
ARM GAS  C:\Users\pierc\AppData\Local\Temp\ccLUFoU0.s 			page 27


 913              		.section	.text.HAL_ADC_ErrorCallback,"ax",%progbits
 914              		.align	1
 915              		.global	HAL_ADC_ErrorCallback
 916              		.syntax unified
 917              		.thumb
 918              		.thumb_func
 919              		.fpu fpv4-sp-d16
 921              	HAL_ADC_ErrorCallback:
 922              	.LVL72:
 923              	.LFB142:
 354:Core/Src/main.c ****   /* In case of ADC error, call main error handler */
 924              		.loc 1 354 1 view -0
 925              		.cfi_startproc
 926              		@ Volatile: function does not return.
 927              		@ args = 0, pretend = 0, frame = 0
 928              		@ frame_needed = 0, uses_anonymous_args = 0
 354:Core/Src/main.c ****   /* In case of ADC error, call main error handler */
 929              		.loc 1 354 1 is_stmt 0 view .LVU243
 930 0000 08B5     		push	{r3, lr}
 931              	.LCFI19:
 932              		.cfi_def_cfa_offset 8
 933              		.cfi_offset 3, -8
 934              		.cfi_offset 14, -4
 356:Core/Src/main.c **** }
 935              		.loc 1 356 3 is_stmt 1 view .LVU244
 936 0002 FFF7FEFF 		bl	Error_Handler
 937              	.LVL73:
 356:Core/Src/main.c **** }
 938              		.loc 1 356 3 is_stmt 0 view .LVU245
 939              		.cfi_endproc
 940              	.LFE142:
 942              		.comm	I2CHandle,124,4
 943              		.comm	TimHandle,64,4
 944              		.comm	AdcHandle,80,4
 945              		.text
 946              	.Letext0:
 947              		.file 2 "c:\\stm32projects\\toolchain\\gcc-arm\\arm-none-eabi\\include\\machine\\_default_types.h"
 948              		.file 3 "c:\\stm32projects\\toolchain\\gcc-arm\\arm-none-eabi\\include\\sys\\_stdint.h"
 949              		.file 4 "Drivers/CMSIS/Include/core_cm4.h"
 950              		.file 5 "Drivers/CMSIS/Device/ST/STM32F3xx/Include/system_stm32f3xx.h"
 951              		.file 6 "Drivers/CMSIS/Device/ST/STM32F3xx/Include/stm32f303xe.h"
 952              		.file 7 "Drivers/CMSIS/Device/ST/STM32F3xx/Include/stm32f3xx.h"
 953              		.file 8 "Drivers/STM32F3xx_HAL_Driver/Inc/stm32f3xx_hal_def.h"
 954              		.file 9 "Drivers/STM32F3xx_HAL_Driver/Inc/stm32f3xx_hal_rcc.h"
 955              		.file 10 "Drivers/STM32F3xx_HAL_Driver/Inc/stm32f3xx_hal_gpio.h"
 956              		.file 11 "Drivers/STM32F3xx_HAL_Driver/Inc/stm32f3xx_hal_dma.h"
 957              		.file 12 "Drivers/STM32F3xx_HAL_Driver/Inc/stm32f3xx_hal_adc_ex.h"
 958              		.file 13 "Drivers/STM32F3xx_HAL_Driver/Inc/stm32f3xx_hal_adc.h"
 959              		.file 14 "Drivers/STM32F3xx_HAL_Driver/Inc/stm32f3xx_hal_i2c.h"
 960              		.file 15 "Drivers/STM32F3xx_HAL_Driver/Inc/stm32f3xx_hal_tim.h"
 961              		.file 16 "Drivers/STM32F3xx_HAL_Driver/Inc/stm32f3xx_hal.h"
 962              		.file 17 "Core/Inc/main.h"
 963              		.file 18 "c:\\stm32projects\\toolchain\\gcc-arm\\lib\\gcc\\arm-none-eabi\\9.3.1\\include\\stddef.h
 964              		.file 19 "c:\\stm32projects\\toolchain\\gcc-arm\\arm-none-eabi\\include\\sys\\_types.h"
 965              		.file 20 "c:\\stm32projects\\toolchain\\gcc-arm\\arm-none-eabi\\include\\sys\\reent.h"
 966              		.file 21 "c:\\stm32projects\\toolchain\\gcc-arm\\arm-none-eabi\\include\\sys\\lock.h"
 967              		.file 22 "c:\\stm32projects\\toolchain\\gcc-arm\\arm-none-eabi\\include\\math.h"
ARM GAS  C:\Users\pierc\AppData\Local\Temp\ccLUFoU0.s 			page 28


 968              		.file 23 "Drivers/STM32F3xx_HAL_Driver/Inc/stm32f3xx_hal_tim_ex.h"
 969              		.file 24 "Drivers/STM32F3xx_HAL_Driver/Inc/stm32f3xx_hal_i2c_ex.h"
 970              		.file 25 "Core/Inc/LiquidCrystal.h"
 971              		.file 26 "Core/Inc/MPU6050.h"
 972              		.file 27 "Drivers/STM32F3xx_HAL_Driver/Inc/stm32f3xx_hal_cortex.h"
 973              		.file 28 "Core/Inc/FloatToChar.h"
ARM GAS  C:\Users\pierc\AppData\Local\Temp\ccLUFoU0.s 			page 29


DEFINED SYMBOLS
                            *ABS*:00000000 main.c
C:\Users\pierc\AppData\Local\Temp\ccLUFoU0.s:18     .text.MX_GPIO_Init:00000000 $t
C:\Users\pierc\AppData\Local\Temp\ccLUFoU0.s:25     .text.MX_GPIO_Init:00000000 MX_GPIO_Init
C:\Users\pierc\AppData\Local\Temp\ccLUFoU0.s:87     .text.MX_GPIO_Init:00000040 $d
C:\Users\pierc\AppData\Local\Temp\ccLUFoU0.s:93     .text.HAL_ADC_ConvCpltCallback:00000000 $t
C:\Users\pierc\AppData\Local\Temp\ccLUFoU0.s:100    .text.HAL_ADC_ConvCpltCallback:00000000 HAL_ADC_ConvCpltCallback
C:\Users\pierc\AppData\Local\Temp\ccLUFoU0.s:114    .text.HAL_ADC_ConvHalfCpltCallback:00000000 $t
C:\Users\pierc\AppData\Local\Temp\ccLUFoU0.s:121    .text.HAL_ADC_ConvHalfCpltCallback:00000000 HAL_ADC_ConvHalfCpltCallback
C:\Users\pierc\AppData\Local\Temp\ccLUFoU0.s:135    .text.HAL_ADC_LevelOutOfWindowCallback:00000000 $t
C:\Users\pierc\AppData\Local\Temp\ccLUFoU0.s:142    .text.HAL_ADC_LevelOutOfWindowCallback:00000000 HAL_ADC_LevelOutOfWindowCallback
C:\Users\pierc\AppData\Local\Temp\ccLUFoU0.s:156    .text.Error_Handler:00000000 $t
C:\Users\pierc\AppData\Local\Temp\ccLUFoU0.s:163    .text.Error_Handler:00000000 Error_Handler
C:\Users\pierc\AppData\Local\Temp\ccLUFoU0.s:180    .text.ADC_Config:00000000 $t
C:\Users\pierc\AppData\Local\Temp\ccLUFoU0.s:186    .text.ADC_Config:00000000 ADC_Config
C:\Users\pierc\AppData\Local\Temp\ccLUFoU0.s:306    .text.ADC_Config:00000068 $d
                            *COM*:00000050 AdcHandle
C:\Users\pierc\AppData\Local\Temp\ccLUFoU0.s:311    .text.TIM_Config:00000000 $t
C:\Users\pierc\AppData\Local\Temp\ccLUFoU0.s:317    .text.TIM_Config:00000000 TIM_Config
C:\Users\pierc\AppData\Local\Temp\ccLUFoU0.s:412    .text.TIM_Config:00000054 $d
                            *COM*:00000040 TimHandle
C:\Users\pierc\AppData\Local\Temp\ccLUFoU0.s:419    .text.I2C_Config:00000000 $t
C:\Users\pierc\AppData\Local\Temp\ccLUFoU0.s:425    .text.I2C_Config:00000000 I2C_Config
C:\Users\pierc\AppData\Local\Temp\ccLUFoU0.s:507    .text.I2C_Config:00000048 $d
                            *COM*:0000007c I2CHandle
C:\Users\pierc\AppData\Local\Temp\ccLUFoU0.s:514    .text.SystemClock_Config:00000000 $t
C:\Users\pierc\AppData\Local\Temp\ccLUFoU0.s:521    .text.SystemClock_Config:00000000 SystemClock_Config
C:\Users\pierc\AppData\Local\Temp\ccLUFoU0.s:614    .rodata.main.str1.4:00000000 $d
C:\Users\pierc\AppData\Local\Temp\ccLUFoU0.s:625    .text.main:00000000 $t
C:\Users\pierc\AppData\Local\Temp\ccLUFoU0.s:632    .text.main:00000000 main
C:\Users\pierc\AppData\Local\Temp\ccLUFoU0.s:891    .text.main:00000188 $d
C:\Users\pierc\AppData\Local\Temp\ccLUFoU0.s:914    .text.HAL_ADC_ErrorCallback:00000000 $t
C:\Users\pierc\AppData\Local\Temp\ccLUFoU0.s:921    .text.HAL_ADC_ErrorCallback:00000000 HAL_ADC_ErrorCallback

UNDEFINED SYMBOLS
HAL_GPIO_Init
HAL_ADC_Init
HAL_ADC_ConfigChannel
HAL_RCC_GetPCLK1Freq
HAL_TIM_Base_Init
HAL_TIMEx_MasterConfigSynchronization
HAL_I2C_Init
HAL_I2CEx_ConfigAnalogFilter
HAL_I2CEx_ConfigDigitalFilter
HAL_RCC_OscConfig
HAL_RCC_ClockConfig
__aeabi_i2d
__aeabi_dmul
__aeabi_dsub
__aeabi_ddiv
__aeabi_d2f
__aeabi_f2d
__aeabi_dadd
HAL_Init
LiquidCrystal
print
setCursor
ARM GAS  C:\Users\pierc\AppData\Local\Temp\ccLUFoU0.s 			page 30


MPU6050_Init
HAL_TIM_Base_Start
HAL_ADC_Start
HAL_NVIC_SetPriority
HAL_NVIC_EnableIRQ
HAL_ADC_PollForConversion
HAL_ADC_GetValue
log
powf
float_char
HAL_Delay
ACCEL_X
