ARM GAS  C:\Users\pierc\AppData\Local\Temp\cc7VXu6B.s 			page 1


   1              		.cpu cortex-m4
   2              		.eabi_attribute 27, 1
   3              		.eabi_attribute 28, 1
   4              		.eabi_attribute 20, 1
   5              		.eabi_attribute 21, 1
   6              		.eabi_attribute 23, 3
   7              		.eabi_attribute 24, 1
   8              		.eabi_attribute 25, 1
   9              		.eabi_attribute 26, 1
  10              		.eabi_attribute 30, 1
  11              		.eabi_attribute 34, 1
  12              		.eabi_attribute 18, 4
  13              		.file	"MPU6050.c"
  14              		.text
  15              	.Ltext0:
  16              		.cfi_sections	.debug_frame
  17              		.section	.text.MPU6050_Init,"ax",%progbits
  18              		.align	1
  19              		.global	MPU6050_Init
  20              		.arch armv7e-m
  21              		.syntax unified
  22              		.thumb
  23              		.thumb_func
  24              		.fpu fpv4-sp-d16
  26              	MPU6050_Init:
  27              	.LFB130:
  28              		.file 1 "Core/Src/MPU6050.c"
   1:Core/Src/MPU6050.c **** 
   2:Core/Src/MPU6050.c **** #include "MPU6050.h"
   3:Core/Src/MPU6050.c **** 
   4:Core/Src/MPU6050.c **** 
   5:Core/Src/MPU6050.c **** void MPU6050_Init (void)
   6:Core/Src/MPU6050.c **** {
  29              		.loc 1 6 1 view -0
  30              		.cfi_startproc
  31              		@ args = 0, pretend = 0, frame = 8
  32              		@ frame_needed = 0, uses_anonymous_args = 0
  33 0000 00B5     		push	{lr}
  34              	.LCFI0:
  35              		.cfi_def_cfa_offset 4
  36              		.cfi_offset 14, -4
  37 0002 87B0     		sub	sp, sp, #28
  38              	.LCFI1:
  39              		.cfi_def_cfa_offset 32
   7:Core/Src/MPU6050.c **** 	uint8_t check;
  40              		.loc 1 7 2 view .LVU1
   8:Core/Src/MPU6050.c **** 	uint8_t Data;
  41              		.loc 1 8 2 view .LVU2
   9:Core/Src/MPU6050.c **** 
  10:Core/Src/MPU6050.c **** 
  11:Core/Src/MPU6050.c **** 	HAL_I2C_Mem_Read (&I2CHandle, MPU6050_ADDR,WHO_AM_I_REG,1, &check, 1, 1000);
  42              		.loc 1 11 2 view .LVU3
  43 0004 4FF47A73 		mov	r3, #1000
  44 0008 0293     		str	r3, [sp, #8]
  45 000a 0123     		movs	r3, #1
  46 000c 0193     		str	r3, [sp, #4]
  47 000e 0DF11702 		add	r2, sp, #23
ARM GAS  C:\Users\pierc\AppData\Local\Temp\cc7VXu6B.s 			page 2


  48 0012 0092     		str	r2, [sp]
  49 0014 7522     		movs	r2, #117
  50 0016 D021     		movs	r1, #208
  51 0018 3148     		ldr	r0, .L14
  52 001a FFF7FEFF 		bl	HAL_I2C_Mem_Read
  53              	.LVL0:
  12:Core/Src/MPU6050.c **** 
  13:Core/Src/MPU6050.c **** 	if ((check) == 0x68)  // 0x68 will be returned by the sensor if everything goes well
  54              		.loc 1 13 2 view .LVU4
  55              		.loc 1 13 14 is_stmt 0 view .LVU5
  56 001e 9DF81730 		ldrb	r3, [sp, #23]	@ zero_extendqisi2
  57              		.loc 1 13 5 view .LVU6
  58 0022 682B     		cmp	r3, #104
  59 0024 02D0     		beq	.L13
  60              	.L1:
  14:Core/Src/MPU6050.c **** 	{
  15:Core/Src/MPU6050.c **** 		//reset the unit 
  16:Core/Src/MPU6050.c **** 		Data = 0x80;
  17:Core/Src/MPU6050.c **** 		if (HAL_I2C_Mem_Write(&I2CHandle, MPU6050_ADDR, PWR_MGMT_1_REG, 1,&Data, 1, 1000)!= HAL_OK)
  18:Core/Src/MPU6050.c **** 		{ 
  19:Core/Src/MPU6050.c ****     		while(1)
  20:Core/Src/MPU6050.c **** 			{
  21:Core/Src/MPU6050.c **** 
  22:Core/Src/MPU6050.c **** 			}
  23:Core/Src/MPU6050.c **** 		}
  24:Core/Src/MPU6050.c **** 		// power management register 0X6B we should write all 0's to wake the sensor up
  25:Core/Src/MPU6050.c **** 		// Data = 0;
  26:Core/Src/MPU6050.c **** 		// if (HAL_I2C_Mem_Write(&I2CHandle, MPU6050_ADDR, PWR_MGMT_1_REG, 1,&Data, 1, 1000)!=HAL_OK)
  27:Core/Src/MPU6050.c **** 		// {	 
  28:Core/Src/MPU6050.c ****     	// 	while(1)
  29:Core/Src/MPU6050.c **** 		// 	{
  30:Core/Src/MPU6050.c **** 				
  31:Core/Src/MPU6050.c **** 		// 	}
  32:Core/Src/MPU6050.c **** 		// }
  33:Core/Src/MPU6050.c **** 		// Set DATA RATE of 1KHz by writing SMPLRT_DIV register
  34:Core/Src/MPU6050.c **** 		Data = 0x07;
  35:Core/Src/MPU6050.c **** 		if(HAL_I2C_Mem_Write(&I2CHandle, MPU6050_ADDR, SMPLRT_DIV_REG, 1, &Data, 1, 1000)!=HAL_OK)
  36:Core/Src/MPU6050.c **** 		 {
  37:Core/Src/MPU6050.c ****     		while(1)
  38:Core/Src/MPU6050.c **** 			{
  39:Core/Src/MPU6050.c **** 				
  40:Core/Src/MPU6050.c **** 			}
  41:Core/Src/MPU6050.c ****  		 }
  42:Core/Src/MPU6050.c **** 
  43:Core/Src/MPU6050.c **** 		//setting range of accel to += 2g, disabling self test
  44:Core/Src/MPU6050.c **** 		Data = 0x00;
  45:Core/Src/MPU6050.c **** 		if(HAL_I2C_Mem_Write(&I2CHandle, MPU6050_ADDR, ACCEL_CONFIG_REG, 1, &Data, 1, 1000)!=HAL_OK)
  46:Core/Src/MPU6050.c **** 		 {
  47:Core/Src/MPU6050.c ****     		while(1)
  48:Core/Src/MPU6050.c **** 			{
  49:Core/Src/MPU6050.c **** 				
  50:Core/Src/MPU6050.c **** 			}
  51:Core/Src/MPU6050.c ****  		 }
  52:Core/Src/MPU6050.c **** 		//enabling interrupt on data ready 
  53:Core/Src/MPU6050.c **** 		Data = 0x01;
  54:Core/Src/MPU6050.c **** 		if(HAL_I2C_Mem_Write(&I2CHandle, MPU6050_ADDR, INT_ENABLE_REG, 1, &Data, 1, 1000)!=HAL_OK)
  55:Core/Src/MPU6050.c **** 		 {
ARM GAS  C:\Users\pierc\AppData\Local\Temp\cc7VXu6B.s 			page 3


  56:Core/Src/MPU6050.c ****    			 while(1)
  57:Core/Src/MPU6050.c **** 			{
  58:Core/Src/MPU6050.c **** 				
  59:Core/Src/MPU6050.c **** 			}
  60:Core/Src/MPU6050.c ****  		 }
  61:Core/Src/MPU6050.c **** 		//configure the interrupt pin 
  62:Core/Src/MPU6050.c **** 		Data = 0x00;
  63:Core/Src/MPU6050.c **** 		if(HAL_I2C_Mem_Write(&I2CHandle, MPU6050_ADDR, INT_PIN_CFG_REG, 1, &Data, 1, 1000)!=HAL_OK)
  64:Core/Src/MPU6050.c **** 		 {
  65:Core/Src/MPU6050.c ****     		while(1)
  66:Core/Src/MPU6050.c **** 			{
  67:Core/Src/MPU6050.c **** 				
  68:Core/Src/MPU6050.c **** 			}
  69:Core/Src/MPU6050.c ****   		 }
  70:Core/Src/MPU6050.c **** 
  71:Core/Src/MPU6050.c **** 	}
  72:Core/Src/MPU6050.c **** 
  73:Core/Src/MPU6050.c **** }
  61              		.loc 1 73 1 view .LVU7
  62 0026 07B0     		add	sp, sp, #28
  63              	.LCFI2:
  64              		.cfi_remember_state
  65              		.cfi_def_cfa_offset 4
  66              		@ sp needed
  67 0028 5DF804FB 		ldr	pc, [sp], #4
  68              	.L13:
  69              	.LCFI3:
  70              		.cfi_restore_state
  16:Core/Src/MPU6050.c **** 		if (HAL_I2C_Mem_Write(&I2CHandle, MPU6050_ADDR, PWR_MGMT_1_REG, 1,&Data, 1, 1000)!= HAL_OK)
  71              		.loc 1 16 3 is_stmt 1 view .LVU8
  16:Core/Src/MPU6050.c **** 		if (HAL_I2C_Mem_Write(&I2CHandle, MPU6050_ADDR, PWR_MGMT_1_REG, 1,&Data, 1, 1000)!= HAL_OK)
  72              		.loc 1 16 8 is_stmt 0 view .LVU9
  73 002c 8023     		movs	r3, #128
  74 002e 8DF81630 		strb	r3, [sp, #22]
  17:Core/Src/MPU6050.c **** 		{ 
  75              		.loc 1 17 3 is_stmt 1 view .LVU10
  17:Core/Src/MPU6050.c **** 		{ 
  76              		.loc 1 17 7 is_stmt 0 view .LVU11
  77 0032 4FF47A73 		mov	r3, #1000
  78 0036 0293     		str	r3, [sp, #8]
  79 0038 0123     		movs	r3, #1
  80 003a 0193     		str	r3, [sp, #4]
  81 003c 0DF11602 		add	r2, sp, #22
  82 0040 0092     		str	r2, [sp]
  83 0042 6B22     		movs	r2, #107
  84 0044 D021     		movs	r1, #208
  85 0046 2648     		ldr	r0, .L14
  86 0048 FFF7FEFF 		bl	HAL_I2C_Mem_Write
  87              	.LVL1:
  17:Core/Src/MPU6050.c **** 		{ 
  88              		.loc 1 17 6 view .LVU12
  89 004c 00B1     		cbz	r0, .L3
  90              	.L4:
  19:Core/Src/MPU6050.c **** 			{
  91              		.loc 1 19 7 is_stmt 1 discriminator 1 view .LVU13
  22:Core/Src/MPU6050.c **** 		}
  92              		.loc 1 22 4 discriminator 1 view .LVU14
ARM GAS  C:\Users\pierc\AppData\Local\Temp\cc7VXu6B.s 			page 4


  19:Core/Src/MPU6050.c **** 			{
  93              		.loc 1 19 12 discriminator 1 view .LVU15
  94 004e FEE7     		b	.L4
  95              	.L3:
  34:Core/Src/MPU6050.c **** 		if(HAL_I2C_Mem_Write(&I2CHandle, MPU6050_ADDR, SMPLRT_DIV_REG, 1, &Data, 1, 1000)!=HAL_OK)
  96              		.loc 1 34 3 view .LVU16
  34:Core/Src/MPU6050.c **** 		if(HAL_I2C_Mem_Write(&I2CHandle, MPU6050_ADDR, SMPLRT_DIV_REG, 1, &Data, 1, 1000)!=HAL_OK)
  97              		.loc 1 34 8 is_stmt 0 view .LVU17
  98 0050 0723     		movs	r3, #7
  99 0052 8DF81630 		strb	r3, [sp, #22]
  35:Core/Src/MPU6050.c **** 		 {
 100              		.loc 1 35 3 is_stmt 1 view .LVU18
  35:Core/Src/MPU6050.c **** 		 {
 101              		.loc 1 35 6 is_stmt 0 view .LVU19
 102 0056 4FF47A73 		mov	r3, #1000
 103 005a 0293     		str	r3, [sp, #8]
 104 005c 0123     		movs	r3, #1
 105 005e 0193     		str	r3, [sp, #4]
 106 0060 0DF11602 		add	r2, sp, #22
 107 0064 0092     		str	r2, [sp]
 108 0066 1922     		movs	r2, #25
 109 0068 D021     		movs	r1, #208
 110 006a 1D48     		ldr	r0, .L14
 111 006c FFF7FEFF 		bl	HAL_I2C_Mem_Write
 112              	.LVL2:
  35:Core/Src/MPU6050.c **** 		 {
 113              		.loc 1 35 5 view .LVU20
 114 0070 00B1     		cbz	r0, .L5
 115              	.L6:
  37:Core/Src/MPU6050.c **** 			{
 116              		.loc 1 37 7 is_stmt 1 discriminator 2 view .LVU21
  40:Core/Src/MPU6050.c ****  		 }
 117              		.loc 1 40 4 discriminator 2 view .LVU22
  37:Core/Src/MPU6050.c **** 			{
 118              		.loc 1 37 12 discriminator 2 view .LVU23
 119 0072 FEE7     		b	.L6
 120              	.L5:
  44:Core/Src/MPU6050.c **** 		if(HAL_I2C_Mem_Write(&I2CHandle, MPU6050_ADDR, ACCEL_CONFIG_REG, 1, &Data, 1, 1000)!=HAL_OK)
 121              		.loc 1 44 3 view .LVU24
  44:Core/Src/MPU6050.c **** 		if(HAL_I2C_Mem_Write(&I2CHandle, MPU6050_ADDR, ACCEL_CONFIG_REG, 1, &Data, 1, 1000)!=HAL_OK)
 122              		.loc 1 44 8 is_stmt 0 view .LVU25
 123 0074 0023     		movs	r3, #0
 124 0076 8DF81630 		strb	r3, [sp, #22]
  45:Core/Src/MPU6050.c **** 		 {
 125              		.loc 1 45 3 is_stmt 1 view .LVU26
  45:Core/Src/MPU6050.c **** 		 {
 126              		.loc 1 45 6 is_stmt 0 view .LVU27
 127 007a 4FF47A73 		mov	r3, #1000
 128 007e 0293     		str	r3, [sp, #8]
 129 0080 0123     		movs	r3, #1
 130 0082 0193     		str	r3, [sp, #4]
 131 0084 0DF11602 		add	r2, sp, #22
 132 0088 0092     		str	r2, [sp]
 133 008a 1C22     		movs	r2, #28
 134 008c D021     		movs	r1, #208
 135 008e 1448     		ldr	r0, .L14
 136 0090 FFF7FEFF 		bl	HAL_I2C_Mem_Write
ARM GAS  C:\Users\pierc\AppData\Local\Temp\cc7VXu6B.s 			page 5


 137              	.LVL3:
  45:Core/Src/MPU6050.c **** 		 {
 138              		.loc 1 45 5 view .LVU28
 139 0094 00B1     		cbz	r0, .L7
 140              	.L8:
  47:Core/Src/MPU6050.c **** 			{
 141              		.loc 1 47 7 is_stmt 1 discriminator 3 view .LVU29
  50:Core/Src/MPU6050.c ****  		 }
 142              		.loc 1 50 4 discriminator 3 view .LVU30
  47:Core/Src/MPU6050.c **** 			{
 143              		.loc 1 47 12 discriminator 3 view .LVU31
 144 0096 FEE7     		b	.L8
 145              	.L7:
  53:Core/Src/MPU6050.c **** 		if(HAL_I2C_Mem_Write(&I2CHandle, MPU6050_ADDR, INT_ENABLE_REG, 1, &Data, 1, 1000)!=HAL_OK)
 146              		.loc 1 53 3 view .LVU32
  53:Core/Src/MPU6050.c **** 		if(HAL_I2C_Mem_Write(&I2CHandle, MPU6050_ADDR, INT_ENABLE_REG, 1, &Data, 1, 1000)!=HAL_OK)
 147              		.loc 1 53 8 is_stmt 0 view .LVU33
 148 0098 0123     		movs	r3, #1
 149 009a 8DF81630 		strb	r3, [sp, #22]
  54:Core/Src/MPU6050.c **** 		 {
 150              		.loc 1 54 3 is_stmt 1 view .LVU34
  54:Core/Src/MPU6050.c **** 		 {
 151              		.loc 1 54 6 is_stmt 0 view .LVU35
 152 009e 4FF47A72 		mov	r2, #1000
 153 00a2 0292     		str	r2, [sp, #8]
 154 00a4 0193     		str	r3, [sp, #4]
 155 00a6 0DF11602 		add	r2, sp, #22
 156 00aa 0092     		str	r2, [sp]
 157 00ac 3822     		movs	r2, #56
 158 00ae D021     		movs	r1, #208
 159 00b0 0B48     		ldr	r0, .L14
 160 00b2 FFF7FEFF 		bl	HAL_I2C_Mem_Write
 161              	.LVL4:
  54:Core/Src/MPU6050.c **** 		 {
 162              		.loc 1 54 5 view .LVU36
 163 00b6 00B1     		cbz	r0, .L9
 164              	.L10:
  56:Core/Src/MPU6050.c **** 			{
 165              		.loc 1 56 8 is_stmt 1 discriminator 4 view .LVU37
  59:Core/Src/MPU6050.c ****  		 }
 166              		.loc 1 59 4 discriminator 4 view .LVU38
  56:Core/Src/MPU6050.c **** 			{
 167              		.loc 1 56 13 discriminator 4 view .LVU39
 168 00b8 FEE7     		b	.L10
 169              	.L9:
  62:Core/Src/MPU6050.c **** 		if(HAL_I2C_Mem_Write(&I2CHandle, MPU6050_ADDR, INT_PIN_CFG_REG, 1, &Data, 1, 1000)!=HAL_OK)
 170              		.loc 1 62 3 view .LVU40
  62:Core/Src/MPU6050.c **** 		if(HAL_I2C_Mem_Write(&I2CHandle, MPU6050_ADDR, INT_PIN_CFG_REG, 1, &Data, 1, 1000)!=HAL_OK)
 171              		.loc 1 62 8 is_stmt 0 view .LVU41
 172 00ba 0023     		movs	r3, #0
 173 00bc 8DF81630 		strb	r3, [sp, #22]
  63:Core/Src/MPU6050.c **** 		 {
 174              		.loc 1 63 3 is_stmt 1 view .LVU42
  63:Core/Src/MPU6050.c **** 		 {
 175              		.loc 1 63 6 is_stmt 0 view .LVU43
 176 00c0 4FF47A73 		mov	r3, #1000
 177 00c4 0293     		str	r3, [sp, #8]
ARM GAS  C:\Users\pierc\AppData\Local\Temp\cc7VXu6B.s 			page 6


 178 00c6 0123     		movs	r3, #1
 179 00c8 0193     		str	r3, [sp, #4]
 180 00ca 0DF11602 		add	r2, sp, #22
 181 00ce 0092     		str	r2, [sp]
 182 00d0 3722     		movs	r2, #55
 183 00d2 D021     		movs	r1, #208
 184 00d4 0248     		ldr	r0, .L14
 185 00d6 FFF7FEFF 		bl	HAL_I2C_Mem_Write
 186              	.LVL5:
  63:Core/Src/MPU6050.c **** 		 {
 187              		.loc 1 63 5 view .LVU44
 188 00da 0028     		cmp	r0, #0
 189 00dc A3D0     		beq	.L1
 190              	.L11:
  65:Core/Src/MPU6050.c **** 			{
 191              		.loc 1 65 7 is_stmt 1 discriminator 5 view .LVU45
  68:Core/Src/MPU6050.c ****   		 }
 192              		.loc 1 68 4 discriminator 5 view .LVU46
  65:Core/Src/MPU6050.c **** 			{
 193              		.loc 1 65 12 discriminator 5 view .LVU47
 194 00de FEE7     		b	.L11
 195              	.L15:
 196              		.align	2
 197              	.L14:
 198 00e0 00000000 		.word	I2CHandle
 199              		.cfi_endproc
 200              	.LFE130:
 202              		.global	__aeabi_i2d
 203              		.global	__aeabi_dmul
 204              		.global	__aeabi_d2f
 205              		.section	.text.MPU6050_Read_Accel,"ax",%progbits
 206              		.align	1
 207              		.global	MPU6050_Read_Accel
 208              		.syntax unified
 209              		.thumb
 210              		.thumb_func
 211              		.fpu fpv4-sp-d16
 213              	MPU6050_Read_Accel:
 214              	.LFB131:
  74:Core/Src/MPU6050.c **** 
  75:Core/Src/MPU6050.c **** 
  76:Core/Src/MPU6050.c **** void MPU6050_Read_Accel (void)
  77:Core/Src/MPU6050.c **** {
 215              		.loc 1 77 1 view -0
 216              		.cfi_startproc
 217              		@ args = 0, pretend = 0, frame = 8
 218              		@ frame_needed = 0, uses_anonymous_args = 0
 219 0000 30B5     		push	{r4, r5, lr}
 220              	.LCFI4:
 221              		.cfi_def_cfa_offset 12
 222              		.cfi_offset 4, -12
 223              		.cfi_offset 5, -8
 224              		.cfi_offset 14, -4
 225 0002 87B0     		sub	sp, sp, #28
 226              	.LCFI5:
 227              		.cfi_def_cfa_offset 40
  78:Core/Src/MPU6050.c **** 	uint8_t ACCEL_Data[2];
ARM GAS  C:\Users\pierc\AppData\Local\Temp\cc7VXu6B.s 			page 7


 228              		.loc 1 78 2 view .LVU49
  79:Core/Src/MPU6050.c **** 	uint8_t Data;
 229              		.loc 1 79 2 view .LVU50
  80:Core/Src/MPU6050.c **** 
  81:Core/Src/MPU6050.c **** 	// Read 6 BYTES of data starting from ACCEL_XOUT_H register
  82:Core/Src/MPU6050.c **** 
  83:Core/Src/MPU6050.c **** 	HAL_I2C_Mem_Read (&I2CHandle, MPU6050_ADDR, ACCEL_XOUT_H_REG, 1, ACCEL_Data, 2, 1000);
 230              		.loc 1 83 2 view .LVU51
 231 0004 164C     		ldr	r4, .L18
 232 0006 4FF47A75 		mov	r5, #1000
 233 000a 0295     		str	r5, [sp, #8]
 234 000c 0223     		movs	r3, #2
 235 000e 0193     		str	r3, [sp, #4]
 236 0010 05AB     		add	r3, sp, #20
 237 0012 0093     		str	r3, [sp]
 238 0014 0123     		movs	r3, #1
 239 0016 3B22     		movs	r2, #59
 240 0018 D021     		movs	r1, #208
 241 001a 2046     		mov	r0, r4
 242 001c FFF7FEFF 		bl	HAL_I2C_Mem_Read
 243              	.LVL6:
  84:Core/Src/MPU6050.c **** 
  85:Core/Src/MPU6050.c **** 	ACCEL_X_RAW= (int16_t)(ACCEL_Data[0] << 8 | ACCEL_Data [1]);
 244              		.loc 1 85 2 view .LVU52
 245              		.loc 1 85 35 is_stmt 0 view .LVU53
 246 0020 9DF81430 		ldrb	r3, [sp, #20]	@ zero_extendqisi2
 247              		.loc 1 85 57 view .LVU54
 248 0024 9DF81500 		ldrb	r0, [sp, #21]	@ zero_extendqisi2
 249              		.loc 1 85 15 view .LVU55
 250 0028 40EA0320 		orr	r0, r0, r3, lsl #8
 251 002c 00B2     		sxth	r0, r0
 252              		.loc 1 85 13 view .LVU56
 253 002e 0D4B     		ldr	r3, .L18+4
 254 0030 1880     		strh	r0, [r3]	@ movhi
  86:Core/Src/MPU6050.c **** 	
  87:Core/Src/MPU6050.c **** 
  88:Core/Src/MPU6050.c **** 	//setting the fsRange to +-2 the lsb sensitivity is 16384.0 so divide to get value in g's
  89:Core/Src/MPU6050.c **** 
  90:Core/Src/MPU6050.c **** 	ACCEL_X = ACCEL_X_RAW/16384.0;
 255              		.loc 1 90 2 is_stmt 1 view .LVU57
 256              		.loc 1 90 23 is_stmt 0 view .LVU58
 257 0032 FFF7FEFF 		bl	__aeabi_i2d
 258              	.LVL7:
 259 0036 0022     		movs	r2, #0
 260 0038 0B4B     		ldr	r3, .L18+8
 261 003a FFF7FEFF 		bl	__aeabi_dmul
 262              	.LVL8:
 263 003e FFF7FEFF 		bl	__aeabi_d2f
 264              	.LVL9:
 265              		.loc 1 90 10 view .LVU59
 266 0042 0A4B     		ldr	r3, .L18+12
 267 0044 1860     		str	r0, [r3]	@ float
  91:Core/Src/MPU6050.c **** 
  92:Core/Src/MPU6050.c **** 	//clear int_status register
  93:Core/Src/MPU6050.c **** 	HAL_I2C_Mem_Read(&I2CHandle, MPU6050_ADDR, INT_STATUS_REG, 1, &Data, 1, 1000);
 268              		.loc 1 93 2 is_stmt 1 view .LVU60
 269 0046 0295     		str	r5, [sp, #8]
ARM GAS  C:\Users\pierc\AppData\Local\Temp\cc7VXu6B.s 			page 8


 270 0048 0123     		movs	r3, #1
 271 004a 0193     		str	r3, [sp, #4]
 272 004c 0DF11302 		add	r2, sp, #19
 273 0050 0092     		str	r2, [sp]
 274 0052 3A22     		movs	r2, #58
 275 0054 D021     		movs	r1, #208
 276 0056 2046     		mov	r0, r4
 277 0058 FFF7FEFF 		bl	HAL_I2C_Mem_Read
 278              	.LVL10:
  94:Core/Src/MPU6050.c **** 
  95:Core/Src/MPU6050.c **** }
 279              		.loc 1 95 1 is_stmt 0 view .LVU61
 280 005c 07B0     		add	sp, sp, #28
 281              	.LCFI6:
 282              		.cfi_def_cfa_offset 12
 283              		@ sp needed
 284 005e 30BD     		pop	{r4, r5, pc}
 285              	.L19:
 286              		.align	2
 287              	.L18:
 288 0060 00000000 		.word	I2CHandle
 289 0064 00000000 		.word	ACCEL_X_RAW
 290 0068 0000103F 		.word	1058013184
 291 006c 00000000 		.word	ACCEL_X
 292              		.cfi_endproc
 293              	.LFE131:
 295              		.comm	ACCEL_X,4,4
 296              		.comm	ACCEL_X_RAW,2,2
 297              		.text
 298              	.Letext0:
 299              		.file 2 "c:\\stm32projects\\toolchain\\gcc-arm\\arm-none-eabi\\include\\machine\\_default_types.h"
 300              		.file 3 "c:\\stm32projects\\toolchain\\gcc-arm\\arm-none-eabi\\include\\sys\\_stdint.h"
 301              		.file 4 "Drivers/CMSIS/Include/core_cm4.h"
 302              		.file 5 "Drivers/CMSIS/Device/ST/STM32F3xx/Include/system_stm32f3xx.h"
 303              		.file 6 "Drivers/CMSIS/Device/ST/STM32F3xx/Include/stm32f303xe.h"
 304              		.file 7 "Drivers/STM32F3xx_HAL_Driver/Inc/stm32f3xx_hal_def.h"
 305              		.file 8 "Drivers/STM32F3xx_HAL_Driver/Inc/stm32f3xx_hal_dma.h"
 306              		.file 9 "Drivers/STM32F3xx_HAL_Driver/Inc/stm32f3xx_hal_i2c.h"
 307              		.file 10 "Drivers/STM32F3xx_HAL_Driver/Inc/stm32f3xx_hal.h"
 308              		.file 11 "Core/Inc/MPU6050.h"
ARM GAS  C:\Users\pierc\AppData\Local\Temp\cc7VXu6B.s 			page 9

